
C:/Users/vivek/Desktop/Projects/Multislope-3I/SW_RP2350/build/SW_RP2350.elf:     file format elf32-littlearm

Sections:
Idx Name          Size      VMA       LMA       File off  Algn
  0 .text         0000d1f8  10000000  10000000  00001000  2**3
                  CONTENTS, ALLOC, LOAD, READONLY, CODE
  1 .rodata       0000747c  1000d1f8  1000d1f8  0000e1f8  2**3
                  CONTENTS, ALLOC, LOAD, READONLY, DATA
  2 .ARM.exidx    00000008  10014674  10014674  00015674  2**2
                  CONTENTS, ALLOC, LOAD, READONLY, DATA
  3 .binary_info  00000020  1001467c  1001467c  0001567c  2**2
                  CONTENTS, ALLOC, LOAD, READONLY, DATA
  4 .ram_vector_table 00000110  20000000  20000000  00018000  2**2
                  ALLOC
  5 .uninitialized_data 00000000  20000110  20000110  00017e70  2**0
                  CONTENTS
  6 .data         000017c0  20000110  1001469c  00016110  2**3
                  CONTENTS, ALLOC, LOAD, READONLY, CODE
  7 .tdata        00000000  200018d0  200018d0  00017e70  2**0
                  CONTENTS, ALLOC, LOAD, DATA, THREAD_LOCAL
  8 .tbss         00000000  200018d0  200018d0  00000000  2**0
                  ALLOC, THREAD_LOCAL
  9 .bss          00000fbc  200018d0  10015e5c  000188d0  2**3
                  ALLOC
 10 .heap         0007d774  2000288c  10015e5c  0001888c  2**2
                  ALLOC, READONLY
 11 .scratch_x    00000000  20080000  20080000  00017e70  2**0
                  CONTENTS
 12 .scratch_y    00000000  20081000  20081000  00017e70  2**0
                  CONTENTS
 13 .stack_dummy  00000800  20081000  20081000  00017e80  2**5
                  CONTENTS, READONLY
 14 .flash_end    00000014  10015e5c  10015e5c  00017e5c  2**0
                  CONTENTS, ALLOC, LOAD, READONLY, DATA
 15 .ARM.attributes 00000034  00000000  00000000  00018680  2**0
                  CONTENTS, READONLY
 16 .comment      00000044  00000000  00000000  000186b4  2**0
                  CONTENTS, READONLY
 17 .debug_info   00039caf  00000000  00000000  000186f8  2**0
                  CONTENTS, READONLY, DEBUGGING, OCTETS
 18 .debug_abbrev 0000985e  00000000  00000000  000523a7  2**0
                  CONTENTS, READONLY, DEBUGGING, OCTETS
 19 .debug_loclists 0001b7ce  00000000  00000000  0005bc05  2**0
                  CONTENTS, READONLY, DEBUGGING, OCTETS
 20 .debug_aranges 00001400  00000000  00000000  000773d8  2**3
                  CONTENTS, READONLY, DEBUGGING, OCTETS
 21 .debug_rnglists 000050cb  00000000  00000000  000787d8  2**0
                  CONTENTS, READONLY, DEBUGGING, OCTETS
 22 .debug_line   00024537  00000000  00000000  0007d8a3  2**0
                  CONTENTS, READONLY, DEBUGGING, OCTETS
 23 .debug_str    00009fb7  00000000  00000000  000a1dda  2**0
                  CONTENTS, READONLY, DEBUGGING, OCTETS
 24 .debug_frame  00004c38  00000000  00000000  000abd94  2**2
                  CONTENTS, READONLY, DEBUGGING, OCTETS
 25 .debug_line_str 000002b8  00000000  00000000  000b09cc  2**0
                  CONTENTS, READONLY, DEBUGGING, OCTETS

C:/Users/vivek/Desktop/Projects/Multislope-3I/SW_RP2350/build/SW_RP2350.elf:     file format elf32-littlearm


Disassembly of section .text:

10000000 <__VECTOR_TABLE>:
10000000:	20082000 	.word	0x20082000
10000004:	1000015d 	.word	0x1000015d
10000008:	10000113 	.word	0x10000113
1000000c:	10000115 	.word	0x10000115
10000010:	10000111 	.word	0x10000111
10000014:	10000111 	.word	0x10000111
10000018:	10000111 	.word	0x10000111
1000001c:	10000111 	.word	0x10000111
10000020:	10000111 	.word	0x10000111
10000024:	10000111 	.word	0x10000111
10000028:	10000111 	.word	0x10000111
1000002c:	10000117 	.word	0x10000117
10000030:	10000111 	.word	0x10000111
10000034:	10000111 	.word	0x10000111
10000038:	10000119 	.word	0x10000119
1000003c:	1000011b 	.word	0x1000011b
10000040:	1000011d 	.word	0x1000011d
10000044:	1000011d 	.word	0x1000011d
10000048:	1000011d 	.word	0x1000011d
1000004c:	1000011d 	.word	0x1000011d
10000050:	1000011d 	.word	0x1000011d
10000054:	1000011d 	.word	0x1000011d
10000058:	1000011d 	.word	0x1000011d
1000005c:	1000011d 	.word	0x1000011d
10000060:	1000011d 	.word	0x1000011d
10000064:	1000011d 	.word	0x1000011d
10000068:	1000011d 	.word	0x1000011d
1000006c:	1000011d 	.word	0x1000011d
10000070:	1000011d 	.word	0x1000011d
10000074:	1000011d 	.word	0x1000011d
10000078:	1000011d 	.word	0x1000011d
1000007c:	1000011d 	.word	0x1000011d
10000080:	1000011d 	.word	0x1000011d
10000084:	1000011d 	.word	0x1000011d
10000088:	1000011d 	.word	0x1000011d
1000008c:	1000011d 	.word	0x1000011d
10000090:	1000011d 	.word	0x1000011d
10000094:	1000011d 	.word	0x1000011d
10000098:	1000011d 	.word	0x1000011d
1000009c:	1000011d 	.word	0x1000011d
100000a0:	1000011d 	.word	0x1000011d
100000a4:	1000011d 	.word	0x1000011d
100000a8:	1000011d 	.word	0x1000011d
100000ac:	1000011d 	.word	0x1000011d
100000b0:	1000011d 	.word	0x1000011d
100000b4:	1000011d 	.word	0x1000011d
100000b8:	1000011d 	.word	0x1000011d
100000bc:	1000011d 	.word	0x1000011d
100000c0:	1000011d 	.word	0x1000011d
100000c4:	1000011d 	.word	0x1000011d
100000c8:	1000011d 	.word	0x1000011d
100000cc:	1000011d 	.word	0x1000011d
100000d0:	1000011d 	.word	0x1000011d
100000d4:	1000011d 	.word	0x1000011d
100000d8:	1000011d 	.word	0x1000011d
100000dc:	1000011d 	.word	0x1000011d
100000e0:	1000011d 	.word	0x1000011d
100000e4:	1000011d 	.word	0x1000011d
100000e8:	1000011d 	.word	0x1000011d
100000ec:	1000011d 	.word	0x1000011d
100000f0:	1000011d 	.word	0x1000011d
100000f4:	1000011d 	.word	0x1000011d
100000f8:	1000011d 	.word	0x1000011d
100000fc:	1000011d 	.word	0x1000011d
10000100:	1000011d 	.word	0x1000011d
10000104:	1000011d 	.word	0x1000011d
10000108:	1000011d 	.word	0x1000011d
1000010c:	1000011d 	.word	0x1000011d

10000110 <isr_invalid>:
10000110:	be00      	bkpt	0x0000

10000112 <isr_nmi>:
10000112:	be00      	bkpt	0x0000

10000114 <isr_hardfault>:
10000114:	be00      	bkpt	0x0000

10000116 <isr_svcall>:
10000116:	be00      	bkpt	0x0000

10000118 <isr_pendsv>:
10000118:	be00      	bkpt	0x0000

1000011a <isr_systick>:
1000011a:	be00      	bkpt	0x0000

1000011c <__unhandled_user_irq>:
1000011c:	f3ef 8005 	mrs	r0, IPSR
10000120:	3810      	subs	r0, #16

10000122 <unhandled_user_irq_num_in_r0>:
10000122:	be00      	bkpt	0x0000

10000124 <binary_info_header>:
10000124:	7188ebf2 	.word	0x7188ebf2
10000128:	1001467c 	.word	0x1001467c
1000012c:	1001469c 	.word	0x1001469c
10000130:	100001a8 	.word	0x100001a8
10000134:	e71aa390 	.word	0xe71aa390

10000138 <__binary_info_header_end>:
10000138:	ffffded3 	.word	0xffffded3
1000013c:	10210142 	.word	0x10210142
10000140:	000001ff 	.word	0x000001ff
10000144:	00015d24 	.word	0x00015d24
10000148:	ab123579 	.word	0xab123579

1000014c <_entry_point>:
1000014c:	f04f 0000 	mov.w	r0, #0

10000150 <_enter_vtable_in_r0>:
10000150:	4920      	ldr	r1, [pc, #128]	@ (100001d4 <data_cpy_table+0x2c>)
10000152:	6008      	str	r0, [r1, #0]
10000154:	c806      	ldmia	r0!, {r1, r2}
10000156:	f381 8808 	msr	MSP, r1
1000015a:	4710      	bx	r2

1000015c <_reset_handler>:
1000015c:	f04f 4050 	mov.w	r0, #3489660928	@ 0xd0000000
10000160:	6800      	ldr	r0, [r0, #0]
10000162:	b110      	cbz	r0, 1000016a <hold_non_core0_in_bootrom+0x6>

10000164 <hold_non_core0_in_bootrom>:
10000164:	f04f 0000 	mov.w	r0, #0
10000168:	e7f2      	b.n	10000150 <_enter_vtable_in_r0>
1000016a:	a40f      	add	r4, pc, #60	@ (adr r4, 100001a8 <data_cpy_table>)
1000016c:	cc0e      	ldmia	r4!, {r1, r2, r3}
1000016e:	2900      	cmp	r1, #0
10000170:	d002      	beq.n	10000178 <hold_non_core0_in_bootrom+0x14>
10000172:	f000 f815 	bl	100001a0 <data_cpy>
10000176:	e7f9      	b.n	1000016c <hold_non_core0_in_bootrom+0x8>
10000178:	4917      	ldr	r1, [pc, #92]	@ (100001d8 <data_cpy_table+0x30>)
1000017a:	4a18      	ldr	r2, [pc, #96]	@ (100001dc <data_cpy_table+0x34>)
1000017c:	2000      	movs	r0, #0
1000017e:	e000      	b.n	10000182 <bss_fill_test>

10000180 <bss_fill_loop>:
10000180:	c101      	stmia	r1!, {r0}

10000182 <bss_fill_test>:
10000182:	4291      	cmp	r1, r2
10000184:	d1fc      	bne.n	10000180 <bss_fill_loop>

10000186 <platform_entry>:
10000186:	2000      	movs	r0, #0
10000188:	f380 880a 	msr	MSPLIM, r0
1000018c:	4914      	ldr	r1, [pc, #80]	@ (100001e0 <data_cpy_table+0x38>)
1000018e:	4788      	blx	r1
10000190:	4914      	ldr	r1, [pc, #80]	@ (100001e4 <data_cpy_table+0x3c>)
10000192:	4788      	blx	r1
10000194:	4914      	ldr	r1, [pc, #80]	@ (100001e8 <data_cpy_table+0x40>)
10000196:	4788      	blx	r1
10000198:	be00      	bkpt	0x0000
1000019a:	e7fd      	b.n	10000198 <platform_entry+0x12>

1000019c <data_cpy_loop>:
1000019c:	c901      	ldmia	r1!, {r0}
1000019e:	c201      	stmia	r2!, {r0}

100001a0 <data_cpy>:
100001a0:	429a      	cmp	r2, r3
100001a2:	d3fb      	bcc.n	1000019c <data_cpy_loop>
100001a4:	4770      	bx	lr
100001a6:	bf00      	nop

100001a8 <data_cpy_table>:
100001a8:	1001469c 	.word	0x1001469c
100001ac:	20000110 	.word	0x20000110
100001b0:	200018d0 	.word	0x200018d0
100001b4:	10015e5c 	.word	0x10015e5c
100001b8:	20080000 	.word	0x20080000
100001bc:	20080000 	.word	0x20080000
100001c0:	10015e5c 	.word	0x10015e5c
100001c4:	20081000 	.word	0x20081000
100001c8:	20081000 	.word	0x20081000
100001cc:	00000000 	.word	0x00000000
100001d0:	4770      	bx	lr
100001d2:	0000      	.short	0x0000
100001d4:	e000ed08 	.word	0xe000ed08
100001d8:	200018d0 	.word	0x200018d0
100001dc:	2000288c 	.word	0x2000288c
100001e0:	100041dd 	.word	0x100041dd
100001e4:	10000901 	.word	0x10000901
100001e8:	100041a1 	.word	0x100041a1

100001ec <_init>:
100001ec:	b5f8      	push	{r3, r4, r5, r6, r7, lr}
100001ee:	bf00      	nop

100001f0 <register_tm_clones>:
100001f0:	4b06      	ldr	r3, [pc, #24]	@ (1000020c <register_tm_clones+0x1c>)
100001f2:	4907      	ldr	r1, [pc, #28]	@ (10000210 <register_tm_clones+0x20>)
100001f4:	1ac9      	subs	r1, r1, r3
100001f6:	1089      	asrs	r1, r1, #2
100001f8:	bf48      	it	mi
100001fa:	3101      	addmi	r1, #1
100001fc:	1049      	asrs	r1, r1, #1
100001fe:	d003      	beq.n	10000208 <register_tm_clones+0x18>
10000200:	4b04      	ldr	r3, [pc, #16]	@ (10000214 <register_tm_clones+0x24>)
10000202:	b10b      	cbz	r3, 10000208 <register_tm_clones+0x18>
10000204:	4801      	ldr	r0, [pc, #4]	@ (1000020c <register_tm_clones+0x1c>)
10000206:	4718      	bx	r3
10000208:	4770      	bx	lr
1000020a:	bf00      	nop
1000020c:	200018d0 	.word	0x200018d0
10000210:	200018d0 	.word	0x200018d0
10000214:	00000000 	.word	0x00000000

10000218 <frame_dummy>:
10000218:	b508      	push	{r3, lr}
1000021a:	4b05      	ldr	r3, [pc, #20]	@ (10000230 <frame_dummy+0x18>)
1000021c:	b11b      	cbz	r3, 10000226 <frame_dummy+0xe>
1000021e:	4905      	ldr	r1, [pc, #20]	@ (10000234 <frame_dummy+0x1c>)
10000220:	4805      	ldr	r0, [pc, #20]	@ (10000238 <frame_dummy+0x20>)
10000222:	f3af 8000 	nop.w
10000226:	e8bd 4008 	ldmia.w	sp!, {r3, lr}
1000022a:	f7ff bfe1 	b.w	100001f0 <register_tm_clones>
1000022e:	bf00      	nop
10000230:	00000000 	.word	0x00000000
10000234:	200027d4 	.word	0x200027d4
10000238:	1000d1f8 	.word	0x1000d1f8

1000023c <_Z16i2c0_irq_handlerv>:
1000023c:	4b32      	ldr	r3, [pc, #200]	@ (10000308 <_Z16i2c0_irq_handlerv+0xcc>)
1000023e:	b530      	push	{r4, r5, lr}
10000240:	681b      	ldr	r3, [r3, #0]
10000242:	6ada      	ldr	r2, [r3, #44]	@ 0x2c
10000244:	0754      	lsls	r4, r2, #29
10000246:	d508      	bpl.n	1000025a <_Z16i2c0_irq_handlerv+0x1e>
10000248:	6919      	ldr	r1, [r3, #16]
1000024a:	0508      	lsls	r0, r1, #20
1000024c:	d51c      	bpl.n	10000288 <_Z16i2c0_irq_handlerv+0x4c>
1000024e:	2400      	movs	r4, #0
10000250:	482e      	ldr	r0, [pc, #184]	@ (1000030c <_Z16i2c0_irq_handlerv+0xd0>)
10000252:	4d2f      	ldr	r5, [pc, #188]	@ (10000310 <_Z16i2c0_irq_handlerv+0xd4>)
10000254:	b2c9      	uxtb	r1, r1
10000256:	7369      	strb	r1, [r5, #13]
10000258:	7004      	strb	r4, [r0, #0]
1000025a:	0692      	lsls	r2, r2, #26
1000025c:	d513      	bpl.n	10000286 <_Z16i2c0_irq_handlerv+0x4a>
1000025e:	4c2c      	ldr	r4, [pc, #176]	@ (10000310 <_Z16i2c0_irq_handlerv+0xd4>)
10000260:	482a      	ldr	r0, [pc, #168]	@ (1000030c <_Z16i2c0_irq_handlerv+0xd0>)
10000262:	7b61      	ldrb	r1, [r4, #13]
10000264:	7802      	ldrb	r2, [r0, #0]
10000266:	290d      	cmp	r1, #13
10000268:	d808      	bhi.n	1000027c <_Z16i2c0_irq_handlerv+0x40>
1000026a:	e8df f001 	tbb	[pc, r1]
1000026e:	2c29      	.short	0x2c29
10000270:	31070707 	.word	0x31070707
10000274:	07070707 	.word	0x07070707
10000278:	26070707 	.word	0x26070707
1000027c:	2100      	movs	r1, #0
1000027e:	3201      	adds	r2, #1
10000280:	6119      	str	r1, [r3, #16]
10000282:	6d1b      	ldr	r3, [r3, #80]	@ 0x50
10000284:	7002      	strb	r2, [r0, #0]
10000286:	bd30      	pop	{r4, r5, pc}
10000288:	4c21      	ldr	r4, [pc, #132]	@ (10000310 <_Z16i2c0_irq_handlerv+0xd4>)
1000028a:	4820      	ldr	r0, [pc, #128]	@ (1000030c <_Z16i2c0_irq_handlerv+0xd0>)
1000028c:	f894 e00d 	ldrb.w	lr, [r4, #13]
10000290:	f890 c000 	ldrb.w	ip, [r0]
10000294:	b2c9      	uxtb	r1, r1
10000296:	f1be 0f0d 	cmp.w	lr, #13
1000029a:	d809      	bhi.n	100002b0 <_Z16i2c0_irq_handlerv+0x74>
1000029c:	e8df f00e 	tbb	[pc, lr]
100002a0:	0808262e 	.word	0x0808262e
100002a4:	08081e08 	.word	0x08081e08
100002a8:	08080808 	.word	0x08080808
100002ac:	0708      	.short	0x0708
100002ae:	7361      	strb	r1, [r4, #13]
100002b0:	f10c 0c01 	add.w	ip, ip, #1
100002b4:	f880 c000 	strb.w	ip, [r0]
100002b8:	e7cf      	b.n	1000025a <_Z16i2c0_irq_handlerv+0x1e>
100002ba:	7b61      	ldrb	r1, [r4, #13]
100002bc:	3201      	adds	r2, #1
100002be:	e7df      	b.n	10000280 <_Z16i2c0_irq_handlerv+0x44>
100002c0:	7821      	ldrb	r1, [r4, #0]
100002c2:	3201      	adds	r2, #1
100002c4:	e7dc      	b.n	10000280 <_Z16i2c0_irq_handlerv+0x44>
100002c6:	3201      	adds	r2, #1
100002c8:	2a0d      	cmp	r2, #13
100002ca:	dc1b      	bgt.n	10000304 <_Z16i2c0_irq_handlerv+0xc8>
100002cc:	5ca1      	ldrb	r1, [r4, r2]
100002ce:	e7d7      	b.n	10000280 <_Z16i2c0_irq_handlerv+0x44>
100002d0:	1d51      	adds	r1, r2, #5
100002d2:	290d      	cmp	r1, #13
100002d4:	dcd2      	bgt.n	1000027c <_Z16i2c0_irq_handlerv+0x40>
100002d6:	5c61      	ldrb	r1, [r4, r1]
100002d8:	3201      	adds	r2, #1
100002da:	e7d1      	b.n	10000280 <_Z16i2c0_irq_handlerv+0x44>
100002dc:	f10c 0505 	add.w	r5, ip, #5
100002e0:	2d0d      	cmp	r5, #13
100002e2:	dce5      	bgt.n	100002b0 <_Z16i2c0_irq_handlerv+0x74>
100002e4:	5561      	strb	r1, [r4, r5]
100002e6:	f10c 0c01 	add.w	ip, ip, #1
100002ea:	e7e3      	b.n	100002b4 <_Z16i2c0_irq_handlerv+0x78>
100002ec:	f10c 0c01 	add.w	ip, ip, #1
100002f0:	f1bc 0f0d 	cmp.w	ip, #13
100002f4:	dcde      	bgt.n	100002b4 <_Z16i2c0_irq_handlerv+0x78>
100002f6:	f804 100c 	strb.w	r1, [r4, ip]
100002fa:	e7db      	b.n	100002b4 <_Z16i2c0_irq_handlerv+0x78>
100002fc:	7021      	strb	r1, [r4, #0]
100002fe:	f10c 0c01 	add.w	ip, ip, #1
10000302:	e7d7      	b.n	100002b4 <_Z16i2c0_irq_handlerv+0x78>
10000304:	2100      	movs	r1, #0
10000306:	e7bb      	b.n	10000280 <_Z16i2c0_irq_handlerv+0x44>
10000308:	20001210 	.word	0x20001210
1000030c:	20002881 	.word	0x20002881
10000310:	2000281c 	.word	0x2000281c

10000314 <_Z15ms_program_initP8pio_hw_tjjjjfj>:
10000314:	e92d 47f0 	stmdb	sp!, {r4, r5, r6, r7, r8, r9, sl, lr}
10000318:	ed2d 8b02 	vpush	{d8}
1000031c:	f44f 3480 	mov.w	r4, #65536	@ 0x10000
10000320:	4699      	mov	r9, r3
10000322:	f44f 2340 	mov.w	r3, #786432	@ 0xc0000
10000326:	f04f 0a00 	mov.w	sl, #0
1000032a:	b088      	sub	sp, #32
1000032c:	9404      	str	r4, [sp, #16]
1000032e:	f100 442f 	add.w	r4, r0, #2936012800	@ 0xaf000000
10000332:	f504 0460 	add.w	r4, r4, #14680064	@ 0xe00000
10000336:	0d24      	lsrs	r4, r4, #20
10000338:	9306      	str	r3, [sp, #24]
1000033a:	3406      	adds	r4, #6
1000033c:	f102 031a 	add.w	r3, r2, #26
10000340:	b2e4      	uxtb	r4, r4
10000342:	4617      	mov	r7, r2
10000344:	031b      	lsls	r3, r3, #12
10000346:	3217      	adds	r2, #23
10000348:	ea43 13c2 	orr.w	r3, r3, r2, lsl #7
1000034c:	4605      	mov	r5, r0
1000034e:	460e      	mov	r6, r1
10000350:	4648      	mov	r0, r9
10000352:	4621      	mov	r1, r4
10000354:	9305      	str	r3, [sp, #20]
10000356:	f8dd 8048 	ldr.w	r8, [sp, #72]	@ 0x48
1000035a:	ed9d 8a13 	vldr	s16, [sp, #76]	@ 0x4c
1000035e:	f8cd a01c 	str.w	sl, [sp, #28]
10000362:	f000 fc8d 	bl	10000c80 <gpio_set_function>
10000366:	4621      	mov	r1, r4
10000368:	f109 0001 	add.w	r0, r9, #1
1000036c:	f000 fc88 	bl	10000c80 <gpio_set_function>
10000370:	4621      	mov	r1, r4
10000372:	9814      	ldr	r0, [sp, #80]	@ 0x50
10000374:	f000 fc84 	bl	10000c80 <gpio_set_function>
10000378:	4621      	mov	r1, r4
1000037a:	2401      	movs	r4, #1
1000037c:	4640      	mov	r0, r8
1000037e:	f000 fc7f 	bl	10000c80 <gpio_set_function>
10000382:	2303      	movs	r3, #3
10000384:	464a      	mov	r2, r9
10000386:	4631      	mov	r1, r6
10000388:	9400      	str	r4, [sp, #0]
1000038a:	4628      	mov	r0, r5
1000038c:	f006 fcac 	bl	10006ce8 <pio_sm_set_consecutive_pindirs>
10000390:	4623      	mov	r3, r4
10000392:	4642      	mov	r2, r8
10000394:	4631      	mov	r1, r6
10000396:	4628      	mov	r0, r5
10000398:	f8cd a000 	str.w	sl, [sp]
1000039c:	f006 fca4 	bl	10006ce8 <pio_sm_set_consecutive_pindirs>
100003a0:	eefc 7ac8 	vcvt.u32.f32	s15, s16
100003a4:	9b06      	ldr	r3, [sp, #24]
100003a6:	9c07      	ldr	r4, [sp, #28]
100003a8:	f36f 431d 	bfc	r3, #16, #14
100003ac:	f443 3340 	orr.w	r3, r3, #196608	@ 0x30000
100003b0:	9306      	str	r3, [sp, #24]
100003b2:	9b05      	ldr	r3, [sp, #20]
100003b4:	f369 1449 	bfi	r4, r9, #5, #5
100003b8:	f368 631c 	bfi	r3, r8, #24, #5
100003bc:	9305      	str	r3, [sp, #20]
100003be:	ee17 3a90 	vmov	r3, s15
100003c2:	f024 54e0 	bic.w	r4, r4, #469762048	@ 0x1c000000
100003c6:	f044 6440 	orr.w	r4, r4, #201326592	@ 0xc000000
100003ca:	b29b      	uxth	r3, r3
100003cc:	9407      	str	r4, [sp, #28]
100003ce:	b1f3      	cbz	r3, 1000040e <_Z15ms_program_initP8pio_hw_tjjjjfj+0xfa>
100003d0:	ee07 3a90 	vmov	s15, r3
100003d4:	eef8 7a67 	vcvt.f32.u32	s15, s15
100003d8:	ed9f 7a0e 	vldr	s14, [pc, #56]	@ 10000414 <_Z15ms_program_initP8pio_hw_tjjjjfj+0x100>
100003dc:	ee38 8a67 	vsub.f32	s16, s16, s15
100003e0:	ee28 8a07 	vmul.f32	s16, s16, s14
100003e4:	eefc 7ac8 	vcvt.u32.f32	s15, s16
100003e8:	edcd 7a03 	vstr	s15, [sp, #12]
100003ec:	f89d 400c 	ldrb.w	r4, [sp, #12]
100003f0:	0224      	lsls	r4, r4, #8
100003f2:	ea44 4403 	orr.w	r4, r4, r3, lsl #16
100003f6:	463a      	mov	r2, r7
100003f8:	4631      	mov	r1, r6
100003fa:	4628      	mov	r0, r5
100003fc:	ab04      	add	r3, sp, #16
100003fe:	9404      	str	r4, [sp, #16]
10000400:	f006 fcb8 	bl	10006d74 <pio_sm_init>
10000404:	b008      	add	sp, #32
10000406:	ecbd 8b02 	vpop	{d8}
1000040a:	e8bd 87f0 	ldmia.w	sp!, {r4, r5, r6, r7, r8, r9, sl, pc}
1000040e:	461c      	mov	r4, r3
10000410:	e7ef      	b.n	100003f2 <_Z15ms_program_initP8pio_hw_tjjjjfj+0xde>
10000412:	bf00      	nop
10000414:	43800000 	.word	0x43800000

10000418 <_Z20residue_program_initP8pio_hw_tjjjf>:
10000418:	e92d 47f0 	stmdb	sp!, {r4, r5, r6, r7, r8, r9, sl, lr}
1000041c:	ed2d 8b02 	vpush	{d8}
10000420:	f44f 3480 	mov.w	r4, #65536	@ 0x10000
10000424:	461e      	mov	r6, r3
10000426:	4690      	mov	r8, r2
10000428:	f04f 4380 	mov.w	r3, #1073741824	@ 0x40000000
1000042c:	f44f 2540 	mov.w	r5, #786432	@ 0xc0000
10000430:	b088      	sub	sp, #32
10000432:	9404      	str	r4, [sp, #16]
10000434:	f100 442f 	add.w	r4, r0, #2936012800	@ 0xaf000000
10000438:	f504 0460 	add.w	r4, r4, #14680064	@ 0xe00000
1000043c:	0d24      	lsrs	r4, r4, #20
1000043e:	3204      	adds	r2, #4
10000440:	9307      	str	r3, [sp, #28]
10000442:	3406      	adds	r4, #6
10000444:	ea4f 13c8 	mov.w	r3, r8, lsl #7
10000448:	ea43 3302 	orr.w	r3, r3, r2, lsl #12
1000044c:	b2e4      	uxtb	r4, r4
1000044e:	f023 43c0 	bic.w	r3, r3, #1610612736	@ 0x60000000
10000452:	460f      	mov	r7, r1
10000454:	f106 0901 	add.w	r9, r6, #1
10000458:	4621      	mov	r1, r4
1000045a:	9506      	str	r5, [sp, #24]
1000045c:	4605      	mov	r5, r0
1000045e:	4630      	mov	r0, r6
10000460:	9305      	str	r3, [sp, #20]
10000462:	ed9d 8a12 	vldr	s16, [sp, #72]	@ 0x48
10000466:	f106 0a02 	add.w	sl, r6, #2
1000046a:	f000 fc09 	bl	10000c80 <gpio_set_function>
1000046e:	4621      	mov	r1, r4
10000470:	4648      	mov	r0, r9
10000472:	f000 fc05 	bl	10000c80 <gpio_set_function>
10000476:	4621      	mov	r1, r4
10000478:	4650      	mov	r0, sl
1000047a:	f000 fc01 	bl	10000c80 <gpio_set_function>
1000047e:	2300      	movs	r3, #0
10000480:	2401      	movs	r4, #1
10000482:	4632      	mov	r2, r6
10000484:	4639      	mov	r1, r7
10000486:	9300      	str	r3, [sp, #0]
10000488:	4628      	mov	r0, r5
1000048a:	2301      	movs	r3, #1
1000048c:	f006 fc2c 	bl	10006ce8 <pio_sm_set_consecutive_pindirs>
10000490:	4623      	mov	r3, r4
10000492:	464a      	mov	r2, r9
10000494:	4639      	mov	r1, r7
10000496:	4628      	mov	r0, r5
10000498:	9400      	str	r4, [sp, #0]
1000049a:	f006 fc25 	bl	10006ce8 <pio_sm_set_consecutive_pindirs>
1000049e:	4623      	mov	r3, r4
100004a0:	4652      	mov	r2, sl
100004a2:	4639      	mov	r1, r7
100004a4:	4628      	mov	r0, r5
100004a6:	9400      	str	r4, [sp, #0]
100004a8:	f006 fc1e 	bl	10006ce8 <pio_sm_set_consecutive_pindirs>
100004ac:	eefc 7ac8 	vcvt.u32.f32	s15, s16
100004b0:	9b06      	ldr	r3, [sp, #24]
100004b2:	f023 73fa 	bic.w	r3, r3, #32768000	@ 0x1f40000
100004b6:	f423 3380 	bic.w	r3, r3, #65536	@ 0x10000
100004ba:	f443 0371 	orr.w	r3, r3, #15794176	@ 0xf10000
100004be:	9306      	str	r3, [sp, #24]
100004c0:	9b07      	ldr	r3, [sp, #28]
100004c2:	f366 33d3 	bfi	r3, r6, #15, #5
100004c6:	f369 238e 	bfi	r3, r9, #10, #5
100004ca:	9307      	str	r3, [sp, #28]
100004cc:	ee17 3a90 	vmov	r3, s15
100004d0:	b29b      	uxth	r3, r3
100004d2:	b1f3      	cbz	r3, 10000512 <_Z20residue_program_initP8pio_hw_tjjjf+0xfa>
100004d4:	ee07 3a90 	vmov	s15, r3
100004d8:	eef8 7a67 	vcvt.f32.u32	s15, s15
100004dc:	ed9f 7a0e 	vldr	s14, [pc, #56]	@ 10000518 <_Z20residue_program_initP8pio_hw_tjjjf+0x100>
100004e0:	ee38 8a67 	vsub.f32	s16, s16, s15
100004e4:	ee28 8a07 	vmul.f32	s16, s16, s14
100004e8:	eefc 7ac8 	vcvt.u32.f32	s15, s16
100004ec:	edcd 7a03 	vstr	s15, [sp, #12]
100004f0:	f89d 400c 	ldrb.w	r4, [sp, #12]
100004f4:	0224      	lsls	r4, r4, #8
100004f6:	ea44 4403 	orr.w	r4, r4, r3, lsl #16
100004fa:	4642      	mov	r2, r8
100004fc:	4639      	mov	r1, r7
100004fe:	4628      	mov	r0, r5
10000500:	ab04      	add	r3, sp, #16
10000502:	9404      	str	r4, [sp, #16]
10000504:	f006 fc36 	bl	10006d74 <pio_sm_init>
10000508:	b008      	add	sp, #32
1000050a:	ecbd 8b02 	vpop	{d8}
1000050e:	e8bd 87f0 	ldmia.w	sp!, {r4, r5, r6, r7, r8, r9, sl, pc}
10000512:	461c      	mov	r4, r3
10000514:	e7ef      	b.n	100004f6 <_Z20residue_program_initP8pio_hw_tjjjf+0xde>
10000516:	bf00      	nop
10000518:	43800000 	.word	0x43800000

1000051c <_Z24calibration_program_initP8pio_hw_tjjjjfj>:
1000051c:	e92d 47f0 	stmdb	sp!, {r4, r5, r6, r7, r8, r9, sl, lr}
10000520:	ed2d 8b02 	vpush	{d8}
10000524:	f44f 3480 	mov.w	r4, #65536	@ 0x10000
10000528:	461e      	mov	r6, r3
1000052a:	4690      	mov	r8, r2
1000052c:	f44f 2340 	mov.w	r3, #786432	@ 0xc0000
10000530:	f04f 0a00 	mov.w	sl, #0
10000534:	b088      	sub	sp, #32
10000536:	9404      	str	r4, [sp, #16]
10000538:	f100 442f 	add.w	r4, r0, #2936012800	@ 0xaf000000
1000053c:	f504 0460 	add.w	r4, r4, #14680064	@ 0xe00000
10000540:	0d24      	lsrs	r4, r4, #20
10000542:	3406      	adds	r4, #6
10000544:	3203      	adds	r2, #3
10000546:	b2e4      	uxtb	r4, r4
10000548:	9306      	str	r3, [sp, #24]
1000054a:	ea4f 13c8 	mov.w	r3, r8, lsl #7
1000054e:	ea43 3302 	orr.w	r3, r3, r2, lsl #12
10000552:	4605      	mov	r5, r0
10000554:	460f      	mov	r7, r1
10000556:	4630      	mov	r0, r6
10000558:	4621      	mov	r1, r4
1000055a:	9305      	str	r3, [sp, #20]
1000055c:	f8dd 9048 	ldr.w	r9, [sp, #72]	@ 0x48
10000560:	ed9d 8a13 	vldr	s16, [sp, #76]	@ 0x4c
10000564:	f8cd a01c 	str.w	sl, [sp, #28]
10000568:	f000 fb8a 	bl	10000c80 <gpio_set_function>
1000056c:	4621      	mov	r1, r4
1000056e:	1c70      	adds	r0, r6, #1
10000570:	f000 fb86 	bl	10000c80 <gpio_set_function>
10000574:	4621      	mov	r1, r4
10000576:	9814      	ldr	r0, [sp, #80]	@ 0x50
10000578:	f000 fb82 	bl	10000c80 <gpio_set_function>
1000057c:	4621      	mov	r1, r4
1000057e:	2401      	movs	r4, #1
10000580:	4648      	mov	r0, r9
10000582:	f000 fb7d 	bl	10000c80 <gpio_set_function>
10000586:	2303      	movs	r3, #3
10000588:	4632      	mov	r2, r6
1000058a:	4639      	mov	r1, r7
1000058c:	4628      	mov	r0, r5
1000058e:	9400      	str	r4, [sp, #0]
10000590:	f006 fbaa 	bl	10006ce8 <pio_sm_set_consecutive_pindirs>
10000594:	4623      	mov	r3, r4
10000596:	464a      	mov	r2, r9
10000598:	4639      	mov	r1, r7
1000059a:	4628      	mov	r0, r5
1000059c:	f8cd a000 	str.w	sl, [sp]
100005a0:	f006 fba2 	bl	10006ce8 <pio_sm_set_consecutive_pindirs>
100005a4:	9b07      	ldr	r3, [sp, #28]
100005a6:	4632      	mov	r2, r6
100005a8:	f366 1349 	bfi	r3, r6, #5, #5
100005ac:	f023 53e0 	bic.w	r3, r3, #469762048	@ 0x1c000000
100005b0:	f043 6340 	orr.w	r3, r3, #201326592	@ 0xc000000
100005b4:	9307      	str	r3, [sp, #28]
100005b6:	9b05      	ldr	r3, [sp, #20]
100005b8:	4639      	mov	r1, r7
100005ba:	f369 631c 	bfi	r3, r9, #24, #5
100005be:	9305      	str	r3, [sp, #20]
100005c0:	4628      	mov	r0, r5
100005c2:	2303      	movs	r3, #3
100005c4:	9400      	str	r4, [sp, #0]
100005c6:	f006 fb8f 	bl	10006ce8 <pio_sm_set_consecutive_pindirs>
100005ca:	eefc 7ac8 	vcvt.u32.f32	s15, s16
100005ce:	9b06      	ldr	r3, [sp, #24]
100005d0:	f36f 431d 	bfc	r3, #16, #14
100005d4:	f443 3340 	orr.w	r3, r3, #196608	@ 0x30000
100005d8:	9306      	str	r3, [sp, #24]
100005da:	ee17 3a90 	vmov	r3, s15
100005de:	b29b      	uxth	r3, r3
100005e0:	b1f3      	cbz	r3, 10000620 <_Z24calibration_program_initP8pio_hw_tjjjjfj+0x104>
100005e2:	ee07 3a90 	vmov	s15, r3
100005e6:	eef8 7a67 	vcvt.f32.u32	s15, s15
100005ea:	ed9f 7a0e 	vldr	s14, [pc, #56]	@ 10000624 <_Z24calibration_program_initP8pio_hw_tjjjjfj+0x108>
100005ee:	ee38 8a67 	vsub.f32	s16, s16, s15
100005f2:	ee28 8a07 	vmul.f32	s16, s16, s14
100005f6:	eefc 7ac8 	vcvt.u32.f32	s15, s16
100005fa:	edcd 7a03 	vstr	s15, [sp, #12]
100005fe:	f89d 400c 	ldrb.w	r4, [sp, #12]
10000602:	0224      	lsls	r4, r4, #8
10000604:	ea44 4403 	orr.w	r4, r4, r3, lsl #16
10000608:	4642      	mov	r2, r8
1000060a:	4639      	mov	r1, r7
1000060c:	4628      	mov	r0, r5
1000060e:	ab04      	add	r3, sp, #16
10000610:	9404      	str	r4, [sp, #16]
10000612:	f006 fbaf 	bl	10006d74 <pio_sm_init>
10000616:	b008      	add	sp, #32
10000618:	ecbd 8b02 	vpop	{d8}
1000061c:	e8bd 87f0 	ldmia.w	sp!, {r4, r5, r6, r7, r8, r9, sl, pc}
10000620:	461c      	mov	r4, r3
10000622:	e7ef      	b.n	10000604 <_Z24calibration_program_initP8pio_hw_tjjjjfj+0xe8>
10000624:	43800000 	.word	0x43800000

10000628 <_Z8i2c_initv>:
10000628:	b538      	push	{r3, r4, r5, lr}
1000062a:	2424      	movs	r4, #36	@ 0x24
1000062c:	4d13      	ldr	r5, [pc, #76]	@ (1000067c <_Z8i2c_initv+0x54>)
1000062e:	4914      	ldr	r1, [pc, #80]	@ (10000680 <_Z8i2c_initv+0x58>)
10000630:	4628      	mov	r0, r5
10000632:	f006 fc47 	bl	10006ec4 <i2c_init>
10000636:	222b      	movs	r2, #43	@ 0x2b
10000638:	4628      	mov	r0, r5
1000063a:	2101      	movs	r1, #1
1000063c:	f006 fc68 	bl	10006f10 <i2c_set_slave_mode>
10000640:	2103      	movs	r1, #3
10000642:	2010      	movs	r0, #16
10000644:	f000 fb1c 	bl	10000c80 <gpio_set_function>
10000648:	2103      	movs	r1, #3
1000064a:	2011      	movs	r0, #17
1000064c:	f000 fb18 	bl	10000c80 <gpio_set_function>
10000650:	2200      	movs	r2, #0
10000652:	2101      	movs	r1, #1
10000654:	2010      	movs	r0, #16
10000656:	f000 fb31 	bl	10000cbc <gpio_set_pulls>
1000065a:	2200      	movs	r2, #0
1000065c:	2101      	movs	r1, #1
1000065e:	2011      	movs	r0, #17
10000660:	f000 fb2c 	bl	10000cbc <gpio_set_pulls>
10000664:	682b      	ldr	r3, [r5, #0]
10000666:	4620      	mov	r0, r4
10000668:	4906      	ldr	r1, [pc, #24]	@ (10000684 <_Z8i2c_initv+0x5c>)
1000066a:	631c      	str	r4, [r3, #48]	@ 0x30
1000066c:	f000 fca0 	bl	10000fb0 <irq_set_exclusive_handler>
10000670:	4620      	mov	r0, r4
10000672:	e8bd 4038 	ldmia.w	sp!, {r3, r4, r5, lr}
10000676:	2101      	movs	r1, #1
10000678:	f000 bc56 	b.w	10000f28 <irq_set_enabled>
1000067c:	20001210 	.word	0x20001210
10000680:	000186a0 	.word	0x000186a0
10000684:	1000023d 	.word	0x1000023d

10000688 <_Z10get_countsm>:
10000688:	b5f0      	push	{r4, r5, r6, r7, lr}
1000068a:	2319      	movs	r3, #25
1000068c:	2101      	movs	r1, #1
1000068e:	ec41 3040 	gpioc_bit_out_put r3, r1
10000692:	f04f 4700 	mov.w	r7, #2147483648	@ 0x80000000
10000696:	4c34      	ldr	r4, [pc, #208]	@ (10000768 <_Z10get_countsm+0xe0>)
10000698:	4a34      	ldr	r2, [pc, #208]	@ (1000076c <_Z10get_countsm+0xe4>)
1000069a:	4b35      	ldr	r3, [pc, #212]	@ (10000770 <_Z10get_countsm+0xe8>)
1000069c:	6825      	ldr	r5, [r4, #0]
1000069e:	6814      	ldr	r4, [r2, #0]
100006a0:	681b      	ldr	r3, [r3, #0]
100006a2:	1e46      	subs	r6, r0, #1
100006a4:	eb04 0244 	add.w	r2, r4, r4, lsl #1
100006a8:	eb05 0045 	add.w	r0, r5, r5, lsl #1
100006ac:	eb03 00c0 	add.w	r0, r3, r0, lsl #3
100006b0:	eb03 02c2 	add.w	r2, r3, r2, lsl #3
100006b4:	f502 5286 	add.w	r2, r2, #4288	@ 0x10c0
100006b8:	f500 5086 	add.w	r0, r0, #4288	@ 0x10c0
100006bc:	6107      	str	r7, [r0, #16]
100006be:	6107      	str	r7, [r0, #16]
100006c0:	6117      	str	r7, [r2, #16]
100006c2:	6117      	str	r7, [r2, #16]
100006c4:	f105 0210 	add.w	r2, r5, #16
100006c8:	4091      	lsls	r1, r2
100006ca:	685a      	ldr	r2, [r3, #4]
100006cc:	420a      	tst	r2, r1
100006ce:	d1fc      	bne.n	100006ca <_Z10get_countsm+0x42>
100006d0:	2101      	movs	r1, #1
100006d2:	eb03 0c85 	add.w	ip, r3, r5, lsl #2
100006d6:	f104 0208 	add.w	r2, r4, #8
100006da:	f8cc 6010 	str.w	r6, [ip, #16]
100006de:	4091      	lsls	r1, r2
100006e0:	685a      	ldr	r2, [r3, #4]
100006e2:	420a      	tst	r2, r1
100006e4:	d1fc      	bne.n	100006e0 <_Z10get_countsm+0x58>
100006e6:	2201      	movs	r2, #1
100006e8:	eb03 0e84 	add.w	lr, r3, r4, lsl #2
100006ec:	f8de 6020 	ldr.w	r6, [lr, #32]
100006f0:	4820      	ldr	r0, [pc, #128]	@ (10000774 <_Z10get_countsm+0xec>)
100006f2:	3508      	adds	r5, #8
100006f4:	40aa      	lsls	r2, r5
100006f6:	6006      	str	r6, [r0, #0]
100006f8:	6858      	ldr	r0, [r3, #4]
100006fa:	4210      	tst	r0, r2
100006fc:	d1fc      	bne.n	100006f8 <_Z10get_countsm+0x70>
100006fe:	f8dc 5020 	ldr.w	r5, [ip, #32]
10000702:	481d      	ldr	r0, [pc, #116]	@ (10000778 <_Z10get_countsm+0xf0>)
10000704:	43ed      	mvns	r5, r5
10000706:	6005      	str	r5, [r0, #0]
10000708:	6858      	ldr	r0, [r3, #4]
1000070a:	4210      	tst	r0, r2
1000070c:	d1fc      	bne.n	10000708 <_Z10get_countsm+0x80>
1000070e:	f8dc 4020 	ldr.w	r4, [ip, #32]
10000712:	481a      	ldr	r0, [pc, #104]	@ (1000077c <_Z10get_countsm+0xf4>)
10000714:	43e4      	mvns	r4, r4
10000716:	6004      	str	r4, [r0, #0]
10000718:	6858      	ldr	r0, [r3, #4]
1000071a:	4210      	tst	r0, r2
1000071c:	d1fc      	bne.n	10000718 <_Z10get_countsm+0x90>
1000071e:	f8dc 0020 	ldr.w	r0, [ip, #32]
10000722:	4a17      	ldr	r2, [pc, #92]	@ (10000780 <_Z10get_countsm+0xf8>)
10000724:	43c0      	mvns	r0, r0
10000726:	6010      	str	r0, [r2, #0]
10000728:	685a      	ldr	r2, [r3, #4]
1000072a:	400a      	ands	r2, r1
1000072c:	d1fc      	bne.n	10000728 <_Z10get_countsm+0xa0>
1000072e:	4915      	ldr	r1, [pc, #84]	@ (10000784 <_Z10get_countsm+0xfc>)
10000730:	f8de 3020 	ldr.w	r3, [lr, #32]
10000734:	4f14      	ldr	r7, [pc, #80]	@ (10000788 <_Z10get_countsm+0x100>)
10000736:	6809      	ldr	r1, [r1, #0]
10000738:	603b      	str	r3, [r7, #0]
1000073a:	4f14      	ldr	r7, [pc, #80]	@ (1000078c <_Z10get_countsm+0x104>)
1000073c:	1b49      	subs	r1, r1, r5
1000073e:	6039      	str	r1, [r7, #0]
10000740:	4913      	ldr	r1, [pc, #76]	@ (10000790 <_Z10get_countsm+0x108>)
10000742:	1b00      	subs	r0, r0, r4
10000744:	600d      	str	r5, [r1, #0]
10000746:	4913      	ldr	r1, [pc, #76]	@ (10000794 <_Z10get_countsm+0x10c>)
10000748:	1b64      	subs	r4, r4, r5
1000074a:	600c      	str	r4, [r1, #0]
1000074c:	4912      	ldr	r1, [pc, #72]	@ (10000798 <_Z10get_countsm+0x110>)
1000074e:	f3c6 060b 	ubfx	r6, r6, #0, #12
10000752:	6008      	str	r0, [r1, #0]
10000754:	4811      	ldr	r0, [pc, #68]	@ (1000079c <_Z10get_countsm+0x114>)
10000756:	4912      	ldr	r1, [pc, #72]	@ (100007a0 <_Z10get_countsm+0x118>)
10000758:	f3c3 030b 	ubfx	r3, r3, #0, #12
1000075c:	600b      	str	r3, [r1, #0]
1000075e:	6006      	str	r6, [r0, #0]
10000760:	2319      	movs	r3, #25
10000762:	ec42 3040 	gpioc_bit_out_put r3, r2
10000766:	bdf0      	pop	{r4, r5, r6, r7, pc}
10000768:	200027c8 	.word	0x200027c8
1000076c:	20002834 	.word	0x20002834
10000770:	200027f4 	.word	0x200027f4
10000774:	20002830 	.word	0x20002830
10000778:	20002358 	.word	0x20002358
1000077c:	20002850 	.word	0x20002850
10000780:	2000284c 	.word	0x2000284c
10000784:	20001170 	.word	0x20001170
10000788:	2000282c 	.word	0x2000282c
1000078c:	20002860 	.word	0x20002860
10000790:	2000285c 	.word	0x2000285c
10000794:	20002854 	.word	0x20002854
10000798:	20002858 	.word	0x20002858
1000079c:	2000283c 	.word	0x2000283c
100007a0:	20002838 	.word	0x20002838

100007a4 <_Z7get_calv>:
100007a4:	e92d 43f0 	stmdb	sp!, {r4, r5, r6, r7, r8, r9, lr}
100007a8:	2064      	movs	r0, #100	@ 0x64
100007aa:	b083      	sub	sp, #12
100007ac:	f001 f97a 	bl	10001aa4 <sleep_ms>
100007b0:	2319      	movs	r3, #25
100007b2:	2201      	movs	r2, #1
100007b4:	ec42 3040 	gpioc_bit_out_put r3, r2
100007b8:	4929      	ldr	r1, [pc, #164]	@ (10000860 <_Z7get_calv+0xbc>)
100007ba:	4b2a      	ldr	r3, [pc, #168]	@ (10000864 <_Z7get_calv+0xc0>)
100007bc:	680d      	ldr	r5, [r1, #0]
100007be:	6818      	ldr	r0, [r3, #0]
100007c0:	f105 0310 	add.w	r3, r5, #16
100007c4:	409a      	lsls	r2, r3
100007c6:	6843      	ldr	r3, [r0, #4]
100007c8:	4213      	tst	r3, r2
100007ca:	d1fc      	bne.n	100007c6 <_Z7get_calv+0x22>
100007cc:	2301      	movs	r3, #1
100007ce:	4926      	ldr	r1, [pc, #152]	@ (10000868 <_Z7get_calv+0xc4>)
100007d0:	1d2a      	adds	r2, r5, #4
100007d2:	680e      	ldr	r6, [r1, #0]
100007d4:	f840 3022 	str.w	r3, [r0, r2, lsl #2]
100007d8:	f106 0108 	add.w	r1, r6, #8
100007dc:	408b      	lsls	r3, r1
100007de:	6842      	ldr	r2, [r0, #4]
100007e0:	421a      	tst	r2, r3
100007e2:	d1fc      	bne.n	100007de <_Z7get_calv+0x3a>
100007e4:	eb00 0c86 	add.w	ip, r0, r6, lsl #2
100007e8:	f8dc 1020 	ldr.w	r1, [ip, #32]
100007ec:	f3c1 010b 	ubfx	r1, r1, #0, #12
100007f0:	6842      	ldr	r2, [r0, #4]
100007f2:	421a      	tst	r2, r3
100007f4:	d1fc      	bne.n	100007f0 <_Z7get_calv+0x4c>
100007f6:	f8dc 2020 	ldr.w	r2, [ip, #32]
100007fa:	f3c2 020b 	ubfx	r2, r2, #0, #12
100007fe:	6844      	ldr	r4, [r0, #4]
10000800:	401c      	ands	r4, r3
10000802:	d1fc      	bne.n	100007fe <_Z7get_calv+0x5a>
10000804:	f8dc 3020 	ldr.w	r3, [ip, #32]
10000808:	eb05 0c45 	add.w	ip, r5, r5, lsl #1
1000080c:	f04f 4500 	mov.w	r5, #2147483648	@ 0x80000000
10000810:	eb06 0646 	add.w	r6, r6, r6, lsl #1
10000814:	f8df 9058 	ldr.w	r9, [pc, #88]	@ 10000870 <_Z7get_calv+0xcc>
10000818:	f8df 8058 	ldr.w	r8, [pc, #88]	@ 10000874 <_Z7get_calv+0xd0>
1000081c:	eb00 0ccc 	add.w	ip, r0, ip, lsl #3
10000820:	f3c3 030b 	ubfx	r3, r3, #0, #12
10000824:	eb00 00c6 	add.w	r0, r0, r6, lsl #3
10000828:	f50c 5c86 	add.w	ip, ip, #4288	@ 0x10c0
1000082c:	f500 5086 	add.w	r0, r0, #4288	@ 0x10c0
10000830:	1ad6      	subs	r6, r2, r3
10000832:	1a57      	subs	r7, r2, r1
10000834:	f8cc 5010 	str.w	r5, [ip, #16]
10000838:	f04f 0e19 	mov.w	lr, #25
1000083c:	f8cc 5010 	str.w	r5, [ip, #16]
10000840:	6105      	str	r5, [r0, #16]
10000842:	6105      	str	r5, [r0, #16]
10000844:	f8c9 6000 	str.w	r6, [r9]
10000848:	f8c8 7000 	str.w	r7, [r8]
1000084c:	ec44 e040 	gpioc_bit_out_put lr, r4
10000850:	4806      	ldr	r0, [pc, #24]	@ (1000086c <_Z7get_calv+0xc8>)
10000852:	9701      	str	r7, [sp, #4]
10000854:	9600      	str	r6, [sp, #0]
10000856:	f003 fef1 	bl	1000463c <__wrap_printf>
1000085a:	b003      	add	sp, #12
1000085c:	e8bd 83f0 	ldmia.w	sp!, {r4, r5, r6, r7, r8, r9, pc}
10000860:	20002318 	.word	0x20002318
10000864:	200027f4 	.word	0x200027f4
10000868:	20002834 	.word	0x20002834
1000086c:	1000d1f8 	.word	0x1000d1f8
10000870:	2000116c 	.word	0x2000116c
10000874:	20001168 	.word	0x20001168

10000878 <_Z10get_resultv>:
10000878:	4b14      	ldr	r3, [pc, #80]	@ (100008cc <_Z10get_resultv+0x54>)
1000087a:	4a15      	ldr	r2, [pc, #84]	@ (100008d0 <_Z10get_resultv+0x58>)
1000087c:	4915      	ldr	r1, [pc, #84]	@ (100008d4 <_Z10get_resultv+0x5c>)
1000087e:	681b      	ldr	r3, [r3, #0]
10000880:	6809      	ldr	r1, [r1, #0]
10000882:	6812      	ldr	r2, [r2, #0]
10000884:	b410      	push	{r4}
10000886:	fb03 f202 	mul.w	r2, r3, r2
1000088a:	4813      	ldr	r0, [pc, #76]	@ (100008d8 <_Z10get_resultv+0x60>)
1000088c:	fb01 f303 	mul.w	r3, r1, r3
10000890:	4c12      	ldr	r4, [pc, #72]	@ (100008dc <_Z10get_resultv+0x64>)
10000892:	6800      	ldr	r0, [r0, #0]
10000894:	6824      	ldr	r4, [r4, #0]
10000896:	4912      	ldr	r1, [pc, #72]	@ (100008e0 <_Z10get_resultv+0x68>)
10000898:	fb04 3310 	mls	r3, r4, r0, r3
1000089c:	4c11      	ldr	r4, [pc, #68]	@ (100008e4 <_Z10get_resultv+0x6c>)
1000089e:	6809      	ldr	r1, [r1, #0]
100008a0:	6023      	str	r3, [r4, #0]
100008a2:	4c11      	ldr	r4, [pc, #68]	@ (100008e8 <_Z10get_resultv+0x70>)
100008a4:	6824      	ldr	r4, [r4, #0]
100008a6:	fb04 2210 	mls	r2, r4, r0, r2
100008aa:	4810      	ldr	r0, [pc, #64]	@ (100008ec <_Z10get_resultv+0x74>)
100008ac:	ebc2 02c2 	rsb	r2, r2, r2, lsl #3
100008b0:	0052      	lsls	r2, r2, #1
100008b2:	6002      	str	r2, [r0, #0]
100008b4:	4413      	add	r3, r2
100008b6:	4a0e      	ldr	r2, [pc, #56]	@ (100008f0 <_Z10get_resultv+0x78>)
100008b8:	4c0e      	ldr	r4, [pc, #56]	@ (100008f4 <_Z10get_resultv+0x7c>)
100008ba:	6812      	ldr	r2, [r2, #0]
100008bc:	480e      	ldr	r0, [pc, #56]	@ (100008f8 <_Z10get_resultv+0x80>)
100008be:	1a8a      	subs	r2, r1, r2
100008c0:	4413      	add	r3, r2
100008c2:	6022      	str	r2, [r4, #0]
100008c4:	6003      	str	r3, [r0, #0]
100008c6:	f85d 4b04 	ldr.w	r4, [sp], #4
100008ca:	4770      	bx	lr
100008cc:	2000116c 	.word	0x2000116c
100008d0:	2000285c 	.word	0x2000285c
100008d4:	20002854 	.word	0x20002854
100008d8:	20001168 	.word	0x20001168
100008dc:	20002858 	.word	0x20002858
100008e0:	20002838 	.word	0x20002838
100008e4:	20001fec 	.word	0x20001fec
100008e8:	20002860 	.word	0x20002860
100008ec:	20001fe8 	.word	0x20001fe8
100008f0:	2000283c 	.word	0x2000283c
100008f4:	20001ff0 	.word	0x20001ff0
100008f8:	20002840 	.word	0x20002840
100008fc:	00000000 	.word	0x00000000

10000900 <main>:
10000900:	e92d 4ff0 	stmdb	sp!, {r4, r5, r6, r7, r8, r9, sl, fp, lr}
10000904:	ed2d 8b02 	vpush	{d8}
10000908:	b08d      	sub	sp, #52	@ 0x34
1000090a:	48bd      	ldr	r0, [pc, #756]	@ (10000c00 <main+0x300>)
1000090c:	ab0b      	add	r3, sp, #44	@ 0x2c
1000090e:	aa0a      	add	r2, sp, #40	@ 0x28
10000910:	a909      	add	r1, sp, #36	@ 0x24
10000912:	f001 fb09 	bl	10001f28 <check_sys_clock_khz>
10000916:	b918      	cbnz	r0, 10000920 <main+0x20>
10000918:	49b9      	ldr	r1, [pc, #740]	@ (10000c00 <main+0x300>)
1000091a:	48ba      	ldr	r0, [pc, #744]	@ (10000c04 <main+0x304>)
1000091c:	f000 fa06 	bl	10000d2c <panic>
10000920:	2401      	movs	r4, #1
10000922:	e9dd 120a 	ldrd	r1, r2, [sp, #40]	@ 0x28
10000926:	9809      	ldr	r0, [sp, #36]	@ 0x24
10000928:	f001 fa3c 	bl	10001da4 <set_sys_clock_pll>
1000092c:	f003 fdc0 	bl	100044b0 <stdio_init_all>
10000930:	f7ff fe7a 	bl	10000628 <_Z8i2c_initv>
10000934:	2019      	movs	r0, #25
10000936:	f000 f9d5 	bl	10000ce4 <gpio_init>
1000093a:	4625      	mov	r5, r4
1000093c:	2319      	movs	r3, #25
1000093e:	ec44 3044 	gpioc_bit_oe_put r3, r4
10000942:	201a      	movs	r0, #26
10000944:	f000 f9ce 	bl	10000ce4 <gpio_init>
10000948:	2016      	movs	r0, #22
1000094a:	f000 f9cb 	bl	10000ce4 <gpio_init>
1000094e:	271a      	movs	r7, #26
10000950:	ec44 7044 	gpioc_bit_oe_put r7, r4
10000954:	2616      	movs	r6, #22
10000956:	ec44 6044 	gpioc_bit_oe_put r6, r4
1000095a:	200a      	movs	r0, #10
1000095c:	2100      	movs	r1, #0
1000095e:	f001 f889 	bl	10001a74 <sleep_us>
10000962:	2300      	movs	r3, #0
10000964:	f8df 82f8 	ldr.w	r8, [pc, #760]	@ 10000c60 <main+0x360>
10000968:	f8df 92f8 	ldr.w	r9, [pc, #760]	@ 10000c64 <main+0x364>
1000096c:	48a6      	ldr	r0, [pc, #664]	@ (10000c08 <main+0x308>)
1000096e:	49a7      	ldr	r1, [pc, #668]	@ (10000c0c <main+0x30c>)
10000970:	f8c9 3000 	str.w	r3, [r9]
10000974:	f8c8 0000 	str.w	r0, [r8]
10000978:	f006 f91e 	bl	10006bb8 <pio_add_program>
1000097c:	ed9f 8aa4 	vldr	s16, [pc, #656]	@ 10000c10 <main+0x310>
10000980:	f8df b2e4 	ldr.w	fp, [pc, #740]	@ 10000c68 <main+0x368>
10000984:	9004      	str	r0, [sp, #16]
10000986:	49a3      	ldr	r1, [pc, #652]	@ (10000c14 <main+0x314>)
10000988:	f8d8 0000 	ldr.w	r0, [r8]
1000098c:	f8cb 4000 	str.w	r4, [fp]
10000990:	f006 f912 	bl	10006bb8 <pio_add_program>
10000994:	ed8d 8a00 	vstr	s16, [sp]
10000998:	4682      	mov	sl, r0
1000099a:	9a04      	ldr	r2, [sp, #16]
1000099c:	f8d9 1000 	ldr.w	r1, [r9]
100009a0:	f8d8 0000 	ldr.w	r0, [r8]
100009a4:	2303      	movs	r3, #3
100009a6:	f7ff fd37 	bl	10000418 <_Z20residue_program_initP8pio_hw_tjjjf>
100009aa:	2114      	movs	r1, #20
100009ac:	ed8d 8a01 	vstr	s16, [sp, #4]
100009b0:	9400      	str	r4, [sp, #0]
100009b2:	9102      	str	r1, [sp, #8]
100009b4:	f8d8 0000 	ldr.w	r0, [r8]
100009b8:	4652      	mov	r2, sl
100009ba:	f8db 1000 	ldr.w	r1, [fp]
100009be:	2312      	movs	r3, #18
100009c0:	f7ff fdac 	bl	1000051c <_Z24calibration_program_initP8pio_hw_tjjjjfj>
100009c4:	f8d8 2000 	ldr.w	r2, [r8]
100009c8:	f8db 3000 	ldr.w	r3, [fp]
100009cc:	6811      	ldr	r1, [r2, #0]
100009ce:	fa04 f303 	lsl.w	r3, r4, r3
100009d2:	430b      	orrs	r3, r1
100009d4:	6013      	str	r3, [r2, #0]
100009d6:	f8d9 3000 	ldr.w	r3, [r9]
100009da:	6811      	ldr	r1, [r2, #0]
100009dc:	fa04 f303 	lsl.w	r3, r4, r3
100009e0:	430b      	orrs	r3, r1
100009e2:	6013      	str	r3, [r2, #0]
100009e4:	f7ff fede 	bl	100007a4 <_Z7get_calv>
100009e8:	2064      	movs	r0, #100	@ 0x64
100009ea:	f001 f85b 	bl	10001aa4 <sleep_ms>
100009ee:	f7ff fed9 	bl	100007a4 <_Z7get_calv>
100009f2:	f8db 3000 	ldr.w	r3, [fp]
100009f6:	f8d8 0000 	ldr.w	r0, [r8]
100009fa:	fa04 fc03 	lsl.w	ip, r4, r3
100009fe:	f8d9 3000 	ldr.w	r3, [r9]
10000a02:	4652      	mov	r2, sl
10000a04:	fa04 fe03 	lsl.w	lr, r4, r3
10000a08:	6803      	ldr	r3, [r0, #0]
10000a0a:	4982      	ldr	r1, [pc, #520]	@ (10000c14 <main+0x314>)
10000a0c:	ea23 030e 	bic.w	r3, r3, lr
10000a10:	6003      	str	r3, [r0, #0]
10000a12:	6803      	ldr	r3, [r0, #0]
10000a14:	f8df a254 	ldr.w	sl, [pc, #596]	@ 10000c6c <main+0x36c>
10000a18:	ea23 030c 	bic.w	r3, r3, ip
10000a1c:	6003      	str	r3, [r0, #0]
10000a1e:	f006 f947 	bl	10006cb0 <pio_remove_program>
10000a22:	9a04      	ldr	r2, [sp, #16]
10000a24:	f8d8 0000 	ldr.w	r0, [r8]
10000a28:	4978      	ldr	r1, [pc, #480]	@ (10000c0c <main+0x30c>)
10000a2a:	f006 f941 	bl	10006cb0 <pio_remove_program>
10000a2e:	4621      	mov	r1, r4
10000a30:	f8d8 0000 	ldr.w	r0, [r8]
10000a34:	f006 f8a4 	bl	10006b80 <pio_claim_unused_sm>
10000a38:	4977      	ldr	r1, [pc, #476]	@ (10000c18 <main+0x318>)
10000a3a:	f8ca 0000 	str.w	r0, [sl]
10000a3e:	f8d8 0000 	ldr.w	r0, [r8]
10000a42:	f006 f8b9 	bl	10006bb8 <pio_add_program>
10000a46:	4621      	mov	r1, r4
10000a48:	4683      	mov	fp, r0
10000a4a:	f8d8 0000 	ldr.w	r0, [r8]
10000a4e:	f006 f897 	bl	10006b80 <pio_claim_unused_sm>
10000a52:	496e      	ldr	r1, [pc, #440]	@ (10000c0c <main+0x30c>)
10000a54:	f8c9 0000 	str.w	r0, [r9]
10000a58:	f8d8 0000 	ldr.w	r0, [r8]
10000a5c:	f006 f8ac 	bl	10006bb8 <pio_add_program>
10000a60:	2314      	movs	r3, #20
10000a62:	ed8d 8a01 	vstr	s16, [sp, #4]
10000a66:	9302      	str	r3, [sp, #8]
10000a68:	9400      	str	r4, [sp, #0]
10000a6a:	465a      	mov	r2, fp
10000a6c:	f8da 1000 	ldr.w	r1, [sl]
10000a70:	4683      	mov	fp, r0
10000a72:	2312      	movs	r3, #18
10000a74:	f8d8 0000 	ldr.w	r0, [r8]
10000a78:	f7ff fc4c 	bl	10000314 <_Z15ms_program_initP8pio_hw_tjjjjfj>
10000a7c:	ed8d 8a00 	vstr	s16, [sp]
10000a80:	465a      	mov	r2, fp
10000a82:	f8d9 1000 	ldr.w	r1, [r9]
10000a86:	f8d8 0000 	ldr.w	r0, [r8]
10000a8a:	2303      	movs	r3, #3
10000a8c:	f7ff fcc4 	bl	10000418 <_Z20residue_program_initP8pio_hw_tjjjf>
10000a90:	f8d8 1000 	ldr.w	r1, [r8]
10000a94:	f8da 2000 	ldr.w	r2, [sl]
10000a98:	f8d9 3000 	ldr.w	r3, [r9]
10000a9c:	fa04 f202 	lsl.w	r2, r4, r2
10000aa0:	fa04 f303 	lsl.w	r3, r4, r3
10000aa4:	680c      	ldr	r4, [r1, #0]
10000aa6:	2032      	movs	r0, #50	@ 0x32
10000aa8:	4322      	orrs	r2, r4
10000aaa:	600a      	str	r2, [r1, #0]
10000aac:	680a      	ldr	r2, [r1, #0]
10000aae:	4313      	orrs	r3, r2
10000ab0:	600b      	str	r3, [r1, #0]
10000ab2:	f7ff fde9 	bl	10000688 <_Z10get_countsm>
10000ab6:	f44f 707a 	mov.w	r0, #1000	@ 0x3e8
10000aba:	f000 fff3 	bl	10001aa4 <sleep_ms>
10000abe:	ec45 7040 	gpioc_bit_out_put r7, r5
10000ac2:	f04f 0400 	mov.w	r4, #0
10000ac6:	ec44 6040 	gpioc_bit_out_put r6, r4
10000aca:	2100      	movs	r1, #0
10000acc:	2064      	movs	r0, #100	@ 0x64
10000ace:	f000 ffd1 	bl	10001a74 <sleep_us>
10000ad2:	4b52      	ldr	r3, [pc, #328]	@ (10000c1c <main+0x31c>)
10000ad4:	6818      	ldr	r0, [r3, #0]
10000ad6:	f7ff fdd7 	bl	10000688 <_Z10get_countsm>
10000ada:	f7ff fecd 	bl	10000878 <_Z10get_resultv>
10000ade:	4a50      	ldr	r2, [pc, #320]	@ (10000c20 <main+0x320>)
10000ae0:	4950      	ldr	r1, [pc, #320]	@ (10000c24 <main+0x324>)
10000ae2:	6813      	ldr	r3, [r2, #0]
10000ae4:	2064      	movs	r0, #100	@ 0x64
10000ae6:	600b      	str	r3, [r1, #0]
10000ae8:	f000 ffdc 	bl	10001aa4 <sleep_ms>
10000aec:	ec45 7040 	gpioc_bit_out_put r7, r5
10000af0:	ec45 6040 	gpioc_bit_out_put r6, r5
10000af4:	2100      	movs	r1, #0
10000af6:	2064      	movs	r0, #100	@ 0x64
10000af8:	f000 ffbc 	bl	10001a74 <sleep_us>
10000afc:	4b47      	ldr	r3, [pc, #284]	@ (10000c1c <main+0x31c>)
10000afe:	f8df 8170 	ldr.w	r8, [pc, #368]	@ 10000c70 <main+0x370>
10000b02:	6818      	ldr	r0, [r3, #0]
10000b04:	f7ff fdc0 	bl	10000688 <_Z10get_countsm>
10000b08:	f7ff feb6 	bl	10000878 <_Z10get_resultv>
10000b0c:	4a44      	ldr	r2, [pc, #272]	@ (10000c20 <main+0x320>)
10000b0e:	2064      	movs	r0, #100	@ 0x64
10000b10:	6813      	ldr	r3, [r2, #0]
10000b12:	f8c8 3000 	str.w	r3, [r8]
10000b16:	f000 ffc5 	bl	10001aa4 <sleep_ms>
10000b1a:	ec45 7040 	gpioc_bit_out_put r7, r5
10000b1e:	ec44 6040 	gpioc_bit_out_put r6, r4
10000b22:	ed9f 8b33 	vldr	d8, [pc, #204]	@ 10000bf0 <main+0x2f0>
10000b26:	f8df b14c 	ldr.w	fp, [pc, #332]	@ 10000c74 <main+0x374>
10000b2a:	f8df a14c 	ldr.w	sl, [pc, #332]	@ 10000c78 <main+0x378>
10000b2e:	f8df 914c 	ldr.w	r9, [pc, #332]	@ 10000c7c <main+0x37c>
10000b32:	4d3d      	ldr	r5, [pc, #244]	@ (10000c28 <main+0x328>)
10000b34:	4c3d      	ldr	r4, [pc, #244]	@ (10000c2c <main+0x32c>)
10000b36:	4f3e      	ldr	r7, [pc, #248]	@ (10000c30 <main+0x330>)
10000b38:	4e3e      	ldr	r6, [pc, #248]	@ (10000c34 <main+0x334>)
10000b3a:	221f      	movs	r2, #31
10000b3c:	493e      	ldr	r1, [pc, #248]	@ (10000c38 <main+0x338>)
10000b3e:	483f      	ldr	r0, [pc, #252]	@ (10000c3c <main+0x33c>)
10000b40:	f006 fec6 	bl	100078d0 <scanf>
10000b44:	4b3e      	ldr	r3, [pc, #248]	@ (10000c40 <main+0x340>)
10000b46:	6018      	str	r0, [r3, #0]
10000b48:	2001      	movs	r0, #1
10000b4a:	f000 ffab 	bl	10001aa4 <sleep_ms>
10000b4e:	4b33      	ldr	r3, [pc, #204]	@ (10000c1c <main+0x31c>)
10000b50:	6818      	ldr	r0, [r3, #0]
10000b52:	f7ff fd99 	bl	10000688 <_Z10get_countsm>
10000b56:	f8db 3000 	ldr.w	r3, [fp]
10000b5a:	f8d9 0000 	ldr.w	r0, [r9]
10000b5e:	4a39      	ldr	r2, [pc, #228]	@ (10000c44 <main+0x344>)
10000b60:	fb03 f000 	mul.w	r0, r3, r0
10000b64:	6812      	ldr	r2, [r2, #0]
10000b66:	4938      	ldr	r1, [pc, #224]	@ (10000c48 <main+0x348>)
10000b68:	fb02 f303 	mul.w	r3, r2, r3
10000b6c:	6809      	ldr	r1, [r1, #0]
10000b6e:	f8da 2000 	ldr.w	r2, [sl]
10000b72:	fb01 0012 	mls	r0, r1, r2, r0
10000b76:	4935      	ldr	r1, [pc, #212]	@ (10000c4c <main+0x34c>)
10000b78:	ebc0 00c0 	rsb	r0, r0, r0, lsl #3
10000b7c:	0040      	lsls	r0, r0, #1
10000b7e:	6008      	str	r0, [r1, #0]
10000b80:	4933      	ldr	r1, [pc, #204]	@ (10000c50 <main+0x350>)
10000b82:	6809      	ldr	r1, [r1, #0]
10000b84:	fb01 3312 	mls	r3, r1, r2, r3
10000b88:	4a32      	ldr	r2, [pc, #200]	@ (10000c54 <main+0x354>)
10000b8a:	4418      	add	r0, r3
10000b8c:	6013      	str	r3, [r2, #0]
10000b8e:	6822      	ldr	r2, [r4, #0]
10000b90:	682b      	ldr	r3, [r5, #0]
10000b92:	1a9b      	subs	r3, r3, r2
10000b94:	4a30      	ldr	r2, [pc, #192]	@ (10000c58 <main+0x358>)
10000b96:	4418      	add	r0, r3
10000b98:	6013      	str	r3, [r2, #0]
10000b9a:	4b21      	ldr	r3, [pc, #132]	@ (10000c20 <main+0x320>)
10000b9c:	6038      	str	r0, [r7, #0]
10000b9e:	6018      	str	r0, [r3, #0]
10000ba0:	4b20      	ldr	r3, [pc, #128]	@ (10000c24 <main+0x324>)
10000ba2:	681b      	ldr	r3, [r3, #0]
10000ba4:	1ac0      	subs	r0, r0, r3
10000ba6:	9307      	str	r3, [sp, #28]
10000ba8:	f001 fd48 	bl	1000263c <__wrap___aeabi_i2d>
10000bac:	9b07      	ldr	r3, [sp, #28]
10000bae:	e9cd 0104 	strd	r0, r1, [sp, #16]
10000bb2:	f8d8 0000 	ldr.w	r0, [r8]
10000bb6:	1ac0      	subs	r0, r0, r3
10000bb8:	f001 fd40 	bl	1000263c <__wrap___aeabi_i2d>
10000bbc:	4602      	mov	r2, r0
10000bbe:	460b      	mov	r3, r1
10000bc0:	e9dd 0104 	ldrd	r0, r1, [sp, #16]
10000bc4:	f001 fcde 	bl	10002584 <__wrap___aeabi_ddiv>
10000bc8:	a30b      	add	r3, pc, #44	@ (adr r3, 10000bf8 <main+0x2f8>)
10000bca:	e9d3 2300 	ldrd	r2, r3, [r3]
10000bce:	f001 fcb3 	bl	10002538 <__wrap___aeabi_dmul>
10000bd2:	4602      	mov	r2, r0
10000bd4:	460b      	mov	r3, r1
10000bd6:	4821      	ldr	r0, [pc, #132]	@ (10000c5c <main+0x35c>)
10000bd8:	e9c6 2300 	strd	r2, r3, [r6]
10000bdc:	f003 fd2e 	bl	1000463c <__wrap_printf>
10000be0:	2300      	movs	r3, #0
10000be2:	ed86 8b00 	vstr	d8, [r6]
10000be6:	603b      	str	r3, [r7, #0]
10000be8:	e7a7      	b.n	10000b3a <main+0x23a>
10000bea:	bf00      	nop
10000bec:	f3af 8000 	nop.w
	...
10000bf8:	e7d566cf 	.word	0xe7d566cf
10000bfc:	401bab6a 	.word	0x401bab6a
10000c00:	00017700 	.word	0x00017700
10000c04:	1000d20c 	.word	0x1000d20c
10000c08:	50200000 	.word	0x50200000
10000c0c:	1000d594 	.word	0x1000d594
10000c10:	42200000 	.word	0x42200000
10000c14:	1000d568 	.word	0x1000d568
10000c18:	1000d5a8 	.word	0x1000d5a8
10000c1c:	20001170 	.word	0x20001170
10000c20:	20002840 	.word	0x20002840
10000c24:	20002394 	.word	0x20002394
10000c28:	20002838 	.word	0x20002838
10000c2c:	2000283c 	.word	0x2000283c
10000c30:	2000279c 	.word	0x2000279c
10000c34:	20001fe0 	.word	0x20001fe0
10000c38:	200027a0 	.word	0x200027a0
10000c3c:	1000d240 	.word	0x1000d240
10000c40:	200027cc 	.word	0x200027cc
10000c44:	20002854 	.word	0x20002854
10000c48:	20002860 	.word	0x20002860
10000c4c:	20001fe8 	.word	0x20001fe8
10000c50:	20002858 	.word	0x20002858
10000c54:	20001fec 	.word	0x20001fec
10000c58:	20001ff0 	.word	0x20001ff0
10000c5c:	1000d244 	.word	0x1000d244
10000c60:	200027f4 	.word	0x200027f4
10000c64:	20002834 	.word	0x20002834
10000c68:	20002318 	.word	0x20002318
10000c6c:	200027c8 	.word	0x200027c8
10000c70:	20002818 	.word	0x20002818
10000c74:	2000116c 	.word	0x2000116c
10000c78:	20001168 	.word	0x20001168
10000c7c:	2000285c 	.word	0x2000285c

10000c80 <gpio_set_function>:
10000c80:	b410      	push	{r4}
10000c82:	f44f 7480 	mov.w	r4, #256	@ 0x100
10000c86:	4b0c      	ldr	r3, [pc, #48]	@ (10000cb8 <gpio_set_function+0x38>)
10000c88:	f853 2020 	ldr.w	r2, [r3, r0, lsl #2]
10000c8c:	eb03 0380 	add.w	r3, r3, r0, lsl #2
10000c90:	00c0      	lsls	r0, r0, #3
10000c92:	f082 0240 	eor.w	r2, r2, #64	@ 0x40
10000c96:	f100 4080 	add.w	r0, r0, #1073741824	@ 0x40000000
10000c9a:	f503 5c80 	add.w	ip, r3, #4096	@ 0x1000
10000c9e:	f002 02c0 	and.w	r2, r2, #192	@ 0xc0
10000ca2:	f500 3020 	add.w	r0, r0, #163840	@ 0x28000
10000ca6:	f503 5340 	add.w	r3, r3, #12288	@ 0x3000
10000caa:	f8cc 2000 	str.w	r2, [ip]
10000cae:	6041      	str	r1, [r0, #4]
10000cb0:	601c      	str	r4, [r3, #0]
10000cb2:	f85d 4b04 	ldr.w	r4, [sp], #4
10000cb6:	4770      	bx	lr
10000cb8:	40038004 	.word	0x40038004

10000cbc <gpio_set_pulls>:
10000cbc:	b410      	push	{r4}
10000cbe:	4c08      	ldr	r4, [pc, #32]	@ (10000ce0 <gpio_set_pulls+0x24>)
10000cc0:	00c9      	lsls	r1, r1, #3
10000cc2:	ea41 0182 	orr.w	r1, r1, r2, lsl #2
10000cc6:	f854 2020 	ldr.w	r2, [r4, r0, lsl #2]
10000cca:	eb04 0380 	add.w	r3, r4, r0, lsl #2
10000cce:	4051      	eors	r1, r2
10000cd0:	f503 5380 	add.w	r3, r3, #4096	@ 0x1000
10000cd4:	f001 010c 	and.w	r1, r1, #12
10000cd8:	f85d 4b04 	ldr.w	r4, [sp], #4
10000cdc:	6019      	str	r1, [r3, #0]
10000cde:	4770      	bx	lr
10000ce0:	40038004 	.word	0x40038004

10000ce4 <gpio_init>:
10000ce4:	b430      	push	{r4, r5}
10000ce6:	f04f 0300 	mov.w	r3, #0
10000cea:	ec43 0044 	gpioc_bit_oe_put r0, r3
10000cee:	ec43 0040 	gpioc_bit_out_put r0, r3
10000cf2:	2505      	movs	r5, #5
10000cf4:	f44f 7480 	mov.w	r4, #256	@ 0x100
10000cf8:	4b0b      	ldr	r3, [pc, #44]	@ (10000d28 <gpio_init+0x44>)
10000cfa:	00c2      	lsls	r2, r0, #3
10000cfc:	f853 1020 	ldr.w	r1, [r3, r0, lsl #2]
10000d00:	eb03 0080 	add.w	r0, r3, r0, lsl #2
10000d04:	f081 0140 	eor.w	r1, r1, #64	@ 0x40
10000d08:	f102 4380 	add.w	r3, r2, #1073741824	@ 0x40000000
10000d0c:	f503 3320 	add.w	r3, r3, #163840	@ 0x28000
10000d10:	f001 02c0 	and.w	r2, r1, #192	@ 0xc0
10000d14:	f500 5180 	add.w	r1, r0, #4096	@ 0x1000
10000d18:	f500 5040 	add.w	r0, r0, #12288	@ 0x3000
10000d1c:	600a      	str	r2, [r1, #0]
10000d1e:	605d      	str	r5, [r3, #4]
10000d20:	6004      	str	r4, [r0, #0]
10000d22:	bc30      	pop	{r4, r5}
10000d24:	4770      	bx	lr
10000d26:	bf00      	nop
10000d28:	40038004 	.word	0x40038004

10000d2c <panic>:
10000d2c:	b40f      	push	{r0, r1, r2, r3}
10000d2e:	b500      	push	{lr}
10000d30:	b083      	sub	sp, #12
10000d32:	9c04      	ldr	r4, [sp, #16]
10000d34:	4807      	ldr	r0, [pc, #28]	@ (10000d54 <panic+0x28>)
10000d36:	f003 fbff 	bl	10004538 <__wrap_puts>
10000d3a:	b13c      	cbz	r4, 10000d4c <panic+0x20>
10000d3c:	a905      	add	r1, sp, #20
10000d3e:	4620      	mov	r0, r4
10000d40:	9101      	str	r1, [sp, #4]
10000d42:	f003 f9cd 	bl	100040e0 <weak_raw_vprintf>
10000d46:	4804      	ldr	r0, [pc, #16]	@ (10000d58 <panic+0x2c>)
10000d48:	f003 fbf6 	bl	10004538 <__wrap_puts>
10000d4c:	2001      	movs	r0, #1
10000d4e:	f003 f9df 	bl	10004110 <_exit>
10000d52:	bf00      	nop
10000d54:	1000d248 	.word	0x1000d248
10000d58:	1000d258 	.word	0x1000d258

10000d5c <hw_claim_lock>:
10000d5c:	f3ef 8010 	mrs	r0, PRIMASK
10000d60:	b672      	cpsid	i
10000d62:	4b06      	ldr	r3, [pc, #24]	@ (10000d7c <hw_claim_lock+0x20>)
10000d64:	e8d3 1fcf 	ldaexb	r1, [r3]
10000d68:	2201      	movs	r2, #1
10000d6a:	2900      	cmp	r1, #0
10000d6c:	d1fa      	bne.n	10000d64 <hw_claim_lock+0x8>
10000d6e:	e8c3 2f41 	strexb	r1, r2, [r3]
10000d72:	2900      	cmp	r1, #0
10000d74:	d1f6      	bne.n	10000d64 <hw_claim_lock+0x8>
10000d76:	f3bf 8f5f 	dmb	sy
10000d7a:	4770      	bx	lr
10000d7c:	20002193 	.word	0x20002193

10000d80 <hw_claim_unlock>:
10000d80:	2300      	movs	r3, #0
10000d82:	4a03      	ldr	r2, [pc, #12]	@ (10000d90 <hw_claim_unlock+0x10>)
10000d84:	e8c2 3f8f 	stlb	r3, [r2]
10000d88:	f380 8810 	msr	PRIMASK, r0
10000d8c:	4770      	bx	lr
10000d8e:	bf00      	nop
10000d90:	20002193 	.word	0x20002193

10000d94 <hw_claim_or_assert>:
10000d94:	b570      	push	{r4, r5, r6, lr}
10000d96:	4686      	mov	lr, r0
10000d98:	f3ef 8510 	mrs	r5, PRIMASK
10000d9c:	b672      	cpsid	i
10000d9e:	4c12      	ldr	r4, [pc, #72]	@ (10000de8 <hw_claim_or_assert+0x54>)
10000da0:	e8d4 6fcf 	ldaexb	r6, [r4]
10000da4:	2001      	movs	r0, #1
10000da6:	2e00      	cmp	r6, #0
10000da8:	d1fa      	bne.n	10000da0 <hw_claim_or_assert+0xc>
10000daa:	e8c4 0f46 	strexb	r6, r0, [r4]
10000dae:	2e00      	cmp	r6, #0
10000db0:	d1f6      	bne.n	10000da0 <hw_claim_or_assert+0xc>
10000db2:	f3bf 8f5f 	dmb	sy
10000db6:	f04f 0c01 	mov.w	ip, #1
10000dba:	08c8      	lsrs	r0, r1, #3
10000dbc:	f001 0307 	and.w	r3, r1, #7
10000dc0:	fa0c f303 	lsl.w	r3, ip, r3
10000dc4:	f81e c000 	ldrb.w	ip, [lr, r0]
10000dc8:	ea1c 0603 	ands.w	r6, ip, r3
10000dcc:	d108      	bne.n	10000de0 <hw_claim_or_assert+0x4c>
10000dce:	ea4c 0c03 	orr.w	ip, ip, r3
10000dd2:	f80e c000 	strb.w	ip, [lr, r0]
10000dd6:	e8c4 6f8f 	stlb	r6, [r4]
10000dda:	f385 8810 	msr	PRIMASK, r5
10000dde:	bd70      	pop	{r4, r5, r6, pc}
10000de0:	4610      	mov	r0, r2
10000de2:	f7ff ffa3 	bl	10000d2c <panic>
10000de6:	bf00      	nop
10000de8:	20002193 	.word	0x20002193

10000dec <hw_claim_unused_from_range>:
10000dec:	b5f8      	push	{r3, r4, r5, r6, r7, lr}
10000dee:	f3ef 8510 	mrs	r5, PRIMASK
10000df2:	b672      	cpsid	i
10000df4:	4c23      	ldr	r4, [pc, #140]	@ (10000e84 <hw_claim_unused_from_range+0x98>)
10000df6:	e8d4 7fcf 	ldaexb	r7, [r4]
10000dfa:	2601      	movs	r6, #1
10000dfc:	2f00      	cmp	r7, #0
10000dfe:	d1fa      	bne.n	10000df6 <hw_claim_unused_from_range+0xa>
10000e00:	e8c4 6f47 	strexb	r7, r6, [r4]
10000e04:	2f00      	cmp	r7, #0
10000e06:	d1f6      	bne.n	10000df6 <hw_claim_unused_from_range+0xa>
10000e08:	f3bf 8f5f 	dmb	sy
10000e0c:	429a      	cmp	r2, r3
10000e0e:	d827      	bhi.n	10000e60 <hw_claim_unused_from_range+0x74>
10000e10:	2601      	movs	r6, #1
10000e12:	08d7      	lsrs	r7, r2, #3
10000e14:	f810 e007 	ldrb.w	lr, [r0, r7]
10000e18:	f002 0c07 	and.w	ip, r2, #7
10000e1c:	fa06 fc0c 	lsl.w	ip, r6, ip
10000e20:	ea1e 0f0c 	tst.w	lr, ip
10000e24:	eb00 07d2 	add.w	r7, r0, r2, lsr #3
10000e28:	d10d      	bne.n	10000e46 <hw_claim_unused_from_range+0x5a>
10000e2a:	e025      	b.n	10000e78 <hw_claim_unused_from_range+0x8c>
10000e2c:	ea4f 0ed2 	mov.w	lr, r2, lsr #3
10000e30:	f810 e00e 	ldrb.w	lr, [r0, lr]
10000e34:	f002 0c07 	and.w	ip, r2, #7
10000e38:	fa06 fc0c 	lsl.w	ip, r6, ip
10000e3c:	ea1e 0f0c 	tst.w	lr, ip
10000e40:	eb00 07d2 	add.w	r7, r0, r2, lsr #3
10000e44:	d018      	beq.n	10000e78 <hw_claim_unused_from_range+0x8c>
10000e46:	3201      	adds	r2, #1
10000e48:	4293      	cmp	r3, r2
10000e4a:	d2ef      	bcs.n	10000e2c <hw_claim_unused_from_range+0x40>
10000e4c:	f04f 30ff 	mov.w	r0, #4294967295
10000e50:	2300      	movs	r3, #0
10000e52:	e8c4 3f8f 	stlb	r3, [r4]
10000e56:	f385 8810 	msr	PRIMASK, r5
10000e5a:	4298      	cmp	r0, r3
10000e5c:	db07      	blt.n	10000e6e <hw_claim_unused_from_range+0x82>
10000e5e:	bdf8      	pop	{r3, r4, r5, r6, r7, pc}
10000e60:	2300      	movs	r3, #0
10000e62:	e8c4 3f8f 	stlb	r3, [r4]
10000e66:	f385 8810 	msr	PRIMASK, r5
10000e6a:	f04f 30ff 	mov.w	r0, #4294967295
10000e6e:	2900      	cmp	r1, #0
10000e70:	d0f5      	beq.n	10000e5e <hw_claim_unused_from_range+0x72>
10000e72:	9806      	ldr	r0, [sp, #24]
10000e74:	f7ff ff5a 	bl	10000d2c <panic>
10000e78:	ea4e 0e0c 	orr.w	lr, lr, ip
10000e7c:	4610      	mov	r0, r2
10000e7e:	f887 e000 	strb.w	lr, [r7]
10000e82:	e7e5      	b.n	10000e50 <hw_claim_unused_from_range+0x64>
10000e84:	20002193 	.word	0x20002193

10000e88 <next_striped_spin_lock_num>:
10000e88:	4a04      	ldr	r2, [pc, #16]	@ (10000e9c <next_striped_spin_lock_num+0x14>)
10000e8a:	7810      	ldrb	r0, [r2, #0]
10000e8c:	1c43      	adds	r3, r0, #1
10000e8e:	b2db      	uxtb	r3, r3
10000e90:	2b18      	cmp	r3, #24
10000e92:	bf28      	it	cs
10000e94:	2310      	movcs	r3, #16
10000e96:	7013      	strb	r3, [r2, #0]
10000e98:	4770      	bx	lr
10000e9a:	bf00      	nop
10000e9c:	20001174 	.word	0x20001174

10000ea0 <spin_lock_claim_unused>:
10000ea0:	b510      	push	{r4, lr}
10000ea2:	4c05      	ldr	r4, [pc, #20]	@ (10000eb8 <spin_lock_claim_unused+0x18>)
10000ea4:	b082      	sub	sp, #8
10000ea6:	4601      	mov	r1, r0
10000ea8:	231f      	movs	r3, #31
10000eaa:	2218      	movs	r2, #24
10000eac:	9400      	str	r4, [sp, #0]
10000eae:	4803      	ldr	r0, [pc, #12]	@ (10000ebc <spin_lock_claim_unused+0x1c>)
10000eb0:	f7ff ff9c 	bl	10000dec <hw_claim_unused_from_range>
10000eb4:	b002      	add	sp, #8
10000eb6:	bd10      	pop	{r4, pc}
10000eb8:	1000d25c 	.word	0x1000d25c
10000ebc:	20002324 	.word	0x20002324

10000ec0 <spinlock_set_extexclall>:
10000ec0:	f04f 22e0 	mov.w	r2, #3758153728	@ 0xe000e000
10000ec4:	6893      	ldr	r3, [r2, #8]
10000ec6:	f043 5300 	orr.w	r3, r3, #536870912	@ 0x20000000
10000eca:	6093      	str	r3, [r2, #8]
10000ecc:	4770      	bx	lr
10000ece:	bf00      	nop

10000ed0 <spin_locks_reset>:
10000ed0:	2100      	movs	r1, #0
10000ed2:	4b04      	ldr	r3, [pc, #16]	@ (10000ee4 <spin_locks_reset+0x14>)
10000ed4:	f103 0220 	add.w	r2, r3, #32
10000ed8:	e8c3 1f8f 	stlb	r1, [r3]
10000edc:	3301      	adds	r3, #1
10000ede:	4293      	cmp	r3, r2
10000ee0:	d1fa      	bne.n	10000ed8 <spin_locks_reset+0x8>
10000ee2:	4770      	bx	lr
10000ee4:	20002188 	.word	0x20002188

10000ee8 <runtime_init_per_core_irq_priorities>:
10000ee8:	f04f 23e0 	mov.w	r3, #3758153728	@ 0xe000e000
10000eec:	f04f 3280 	mov.w	r2, #2155905152	@ 0x80808080
10000ef0:	f8c3 2400 	str.w	r2, [r3, #1024]	@ 0x400
10000ef4:	f8c3 2404 	str.w	r2, [r3, #1028]	@ 0x404
10000ef8:	f8c3 2408 	str.w	r2, [r3, #1032]	@ 0x408
10000efc:	f8c3 240c 	str.w	r2, [r3, #1036]	@ 0x40c
10000f00:	f8c3 2410 	str.w	r2, [r3, #1040]	@ 0x410
10000f04:	f8c3 2414 	str.w	r2, [r3, #1044]	@ 0x414
10000f08:	f8c3 2418 	str.w	r2, [r3, #1048]	@ 0x418
10000f0c:	f8c3 241c 	str.w	r2, [r3, #1052]	@ 0x41c
10000f10:	f8c3 2420 	str.w	r2, [r3, #1056]	@ 0x420
10000f14:	f8c3 2424 	str.w	r2, [r3, #1060]	@ 0x424
10000f18:	f8c3 2428 	str.w	r2, [r3, #1064]	@ 0x428
10000f1c:	f8c3 242c 	str.w	r2, [r3, #1068]	@ 0x42c
10000f20:	f8c3 2430 	str.w	r2, [r3, #1072]	@ 0x430
10000f24:	4770      	bx	lr
10000f26:	bf00      	nop

10000f28 <irq_set_enabled>:
10000f28:	2301      	movs	r3, #1
10000f2a:	f000 021f 	and.w	r2, r0, #31
10000f2e:	4093      	lsls	r3, r2
10000f30:	0940      	lsrs	r0, r0, #5
10000f32:	b141      	cbz	r1, 10000f46 <irq_set_enabled+0x1e>
10000f34:	0080      	lsls	r0, r0, #2
10000f36:	f100 4060 	add.w	r0, r0, #3758096384	@ 0xe0000000
10000f3a:	f500 4061 	add.w	r0, r0, #57600	@ 0xe100
10000f3e:	f8c0 3180 	str.w	r3, [r0, #384]	@ 0x180
10000f42:	6003      	str	r3, [r0, #0]
10000f44:	4770      	bx	lr
10000f46:	4a02      	ldr	r2, [pc, #8]	@ (10000f50 <irq_set_enabled+0x28>)
10000f48:	3020      	adds	r0, #32
10000f4a:	f842 3020 	str.w	r3, [r2, r0, lsl #2]
10000f4e:	4770      	bx	lr
10000f50:	e000e100 	.word	0xe000e100

10000f54 <irq_is_enabled>:
10000f54:	2301      	movs	r3, #1
10000f56:	4a06      	ldr	r2, [pc, #24]	@ (10000f70 <irq_is_enabled+0x1c>)
10000f58:	0941      	lsrs	r1, r0, #5
10000f5a:	f852 2021 	ldr.w	r2, [r2, r1, lsl #2]
10000f5e:	f000 001f 	and.w	r0, r0, #31
10000f62:	4083      	lsls	r3, r0
10000f64:	4213      	tst	r3, r2
10000f66:	bf14      	ite	ne
10000f68:	2001      	movne	r0, #1
10000f6a:	2000      	moveq	r0, #0
10000f6c:	4770      	bx	lr
10000f6e:	bf00      	nop
10000f70:	e000e100 	.word	0xe000e100

10000f74 <irq_set_pending>:
10000f74:	2201      	movs	r2, #1
10000f76:	0943      	lsrs	r3, r0, #5
10000f78:	4903      	ldr	r1, [pc, #12]	@ (10000f88 <irq_set_pending+0x14>)
10000f7a:	f000 001f 	and.w	r0, r0, #31
10000f7e:	4082      	lsls	r2, r0
10000f80:	3340      	adds	r3, #64	@ 0x40
10000f82:	f841 2023 	str.w	r2, [r1, r3, lsl #2]
10000f86:	4770      	bx	lr
10000f88:	e000e100 	.word	0xe000e100

10000f8c <irq_has_shared_handler>:
10000f8c:	4b06      	ldr	r3, [pc, #24]	@ (10000fa8 <irq_has_shared_handler+0x1c>)
10000f8e:	3010      	adds	r0, #16
10000f90:	689b      	ldr	r3, [r3, #8]
10000f92:	f853 0020 	ldr.w	r0, [r3, r0, lsl #2]
10000f96:	b128      	cbz	r0, 10000fa4 <irq_has_shared_handler+0x18>
10000f98:	4b04      	ldr	r3, [pc, #16]	@ (10000fac <irq_has_shared_handler+0x20>)
10000f9a:	1ac0      	subs	r0, r0, r3
10000f9c:	282f      	cmp	r0, #47	@ 0x2f
10000f9e:	bf8c      	ite	hi
10000fa0:	2000      	movhi	r0, #0
10000fa2:	2001      	movls	r0, #1
10000fa4:	4770      	bx	lr
10000fa6:	bf00      	nop
10000fa8:	e000ed00 	.word	0xe000ed00
10000fac:	20001178 	.word	0x20001178

10000fb0 <irq_set_exclusive_handler>:
10000fb0:	b5f8      	push	{r3, r4, r5, r6, r7, lr}
10000fb2:	460d      	mov	r5, r1
10000fb4:	f3ef 8710 	mrs	r7, PRIMASK
10000fb8:	b672      	cpsid	i
10000fba:	4e12      	ldr	r6, [pc, #72]	@ (10001004 <irq_set_exclusive_handler+0x54>)
10000fbc:	e8d6 2fcf 	ldaexb	r2, [r6]
10000fc0:	2301      	movs	r3, #1
10000fc2:	2a00      	cmp	r2, #0
10000fc4:	d1fa      	bne.n	10000fbc <irq_set_exclusive_handler+0xc>
10000fc6:	e8c6 3f42 	strexb	r2, r3, [r6]
10000fca:	2a00      	cmp	r2, #0
10000fcc:	d1f6      	bne.n	10000fbc <irq_set_exclusive_handler+0xc>
10000fce:	f3bf 8f5f 	dmb	sy
10000fd2:	4b0d      	ldr	r3, [pc, #52]	@ (10001008 <irq_set_exclusive_handler+0x58>)
10000fd4:	f100 0410 	add.w	r4, r0, #16
10000fd8:	689b      	ldr	r3, [r3, #8]
10000fda:	4a0c      	ldr	r2, [pc, #48]	@ (1000100c <irq_set_exclusive_handler+0x5c>)
10000fdc:	f853 3024 	ldr.w	r3, [r3, r4, lsl #2]
10000fe0:	4293      	cmp	r3, r2
10000fe2:	d003      	beq.n	10000fec <irq_set_exclusive_handler+0x3c>
10000fe4:	4299      	cmp	r1, r3
10000fe6:	d001      	beq.n	10000fec <irq_set_exclusive_handler+0x3c>
10000fe8:	f001 f922 	bl	10002230 <hard_assertion_failure>
10000fec:	4b06      	ldr	r3, [pc, #24]	@ (10001008 <irq_set_exclusive_handler+0x58>)
10000fee:	689b      	ldr	r3, [r3, #8]
10000ff0:	f843 5024 	str.w	r5, [r3, r4, lsl #2]
10000ff4:	f3bf 8f5f 	dmb	sy
10000ff8:	2300      	movs	r3, #0
10000ffa:	e8c6 3f8f 	stlb	r3, [r6]
10000ffe:	f387 8810 	msr	PRIMASK, r7
10001002:	bdf8      	pop	{r3, r4, r5, r6, r7, pc}
10001004:	20002191 	.word	0x20002191
10001008:	e000ed00 	.word	0xe000ed00
1000100c:	1000011d 	.word	0x1000011d

10001010 <irq_add_shared_handler>:
10001010:	e92d 4ff0 	stmdb	sp!, {r4, r5, r6, r7, r8, r9, sl, fp, lr}
10001014:	4681      	mov	r9, r0
10001016:	468b      	mov	fp, r1
10001018:	4616      	mov	r6, r2
1000101a:	b083      	sub	sp, #12
1000101c:	f3ef 8310 	mrs	r3, PRIMASK
10001020:	b672      	cpsid	i
10001022:	f8df a1d0 	ldr.w	sl, [pc, #464]	@ 100011f4 <irq_add_shared_handler+0x1e4>
10001026:	9300      	str	r3, [sp, #0]
10001028:	e8da 1fcf 	ldaexb	r1, [sl]
1000102c:	2301      	movs	r3, #1
1000102e:	2900      	cmp	r1, #0
10001030:	d1fa      	bne.n	10001028 <irq_add_shared_handler+0x18>
10001032:	e8ca 3f41 	strexb	r1, r3, [sl]
10001036:	2900      	cmp	r1, #0
10001038:	d1f6      	bne.n	10001028 <irq_add_shared_handler+0x18>
1000103a:	f3bf 8f5f 	dmb	sy
1000103e:	4b66      	ldr	r3, [pc, #408]	@ (100011d8 <irq_add_shared_handler+0x1c8>)
10001040:	f993 4000 	ldrsb.w	r4, [r3]
10001044:	2c00      	cmp	r4, #0
10001046:	f2c0 80a0 	blt.w	1000118a <irq_add_shared_handler+0x17a>
1000104a:	4d64      	ldr	r5, [pc, #400]	@ (100011dc <irq_add_shared_handler+0x1cc>)
1000104c:	eb04 0744 	add.w	r7, r4, r4, lsl #1
10001050:	eb05 0887 	add.w	r8, r5, r7, lsl #2
10001054:	f898 1006 	ldrb.w	r1, [r8, #6]
10001058:	f109 0910 	add.w	r9, r9, #16
1000105c:	7019      	strb	r1, [r3, #0]
1000105e:	4b60      	ldr	r3, [pc, #384]	@ (100011e0 <irq_add_shared_handler+0x1d0>)
10001060:	00bf      	lsls	r7, r7, #2
10001062:	689b      	ldr	r3, [r3, #8]
10001064:	f853 0029 	ldr.w	r0, [r3, r9, lsl #2]
10001068:	0063      	lsls	r3, r4, #1
1000106a:	1b41      	subs	r1, r0, r5
1000106c:	292f      	cmp	r1, #47	@ 0x2f
1000106e:	d92f      	bls.n	100010d0 <irq_add_shared_handler+0xc0>
10001070:	495c      	ldr	r1, [pc, #368]	@ (100011e4 <irq_add_shared_handler+0x1d4>)
10001072:	4288      	cmp	r0, r1
10001074:	f040 80a4 	bne.w	100011c0 <irq_add_shared_handler+0x1b0>
10001078:	441c      	add	r4, r3
1000107a:	4b5b      	ldr	r3, [pc, #364]	@ (100011e8 <irq_add_shared_handler+0x1d8>)
1000107c:	3702      	adds	r7, #2
1000107e:	442f      	add	r7, r5
10001080:	3b04      	subs	r3, #4
10001082:	1bdb      	subs	r3, r3, r7
10001084:	f3c3 034a 	ubfx	r3, r3, #1, #11
10001088:	ea6f 43c3 	mvn.w	r3, r3, lsl #19
1000108c:	f44f 4121 	mov.w	r1, #41216	@ 0xa100
10001090:	ea6f 43d3 	mvn.w	r3, r3, lsr #19
10001094:	f825 1024 	strh.w	r1, [r5, r4, lsl #2]
10001098:	eb05 0484 	add.w	r4, r5, r4, lsl #2
1000109c:	8063      	strh	r3, [r4, #2]
1000109e:	f64b 5301 	movw	r3, #48385	@ 0xbd01
100010a2:	80a3      	strh	r3, [r4, #4]
100010a4:	23ff      	movs	r3, #255	@ 0xff
100010a6:	f048 0001 	orr.w	r0, r8, #1
100010aa:	71e6      	strb	r6, [r4, #7]
100010ac:	f8c4 b008 	str.w	fp, [r4, #8]
100010b0:	71a3      	strb	r3, [r4, #6]
100010b2:	4b4b      	ldr	r3, [pc, #300]	@ (100011e0 <irq_add_shared_handler+0x1d0>)
100010b4:	689b      	ldr	r3, [r3, #8]
100010b6:	f843 0029 	str.w	r0, [r3, r9, lsl #2]
100010ba:	f3bf 8f5f 	dmb	sy
100010be:	2300      	movs	r3, #0
100010c0:	e8ca 3f8f 	stlb	r3, [sl]
100010c4:	9b00      	ldr	r3, [sp, #0]
100010c6:	f383 8810 	msr	PRIMASK, r3
100010ca:	b003      	add	sp, #12
100010cc:	e8bd 8ff0 	ldmia.w	sp!, {r4, r5, r6, r7, r8, r9, sl, fp, pc}
100010d0:	f020 0e01 	bic.w	lr, r0, #1
100010d4:	f89e 1007 	ldrb.w	r1, [lr, #7]
100010d8:	42b1      	cmp	r1, r6
100010da:	d82e      	bhi.n	1000113a <irq_add_shared_handler+0x12a>
100010dc:	f44f 4321 	mov.w	r3, #41216	@ 0xa100
100010e0:	53eb      	strh	r3, [r5, r7]
100010e2:	4b41      	ldr	r3, [pc, #260]	@ (100011e8 <irq_add_shared_handler+0x1d8>)
100010e4:	1cb9      	adds	r1, r7, #2
100010e6:	4429      	add	r1, r5
100010e8:	3b04      	subs	r3, #4
100010ea:	3704      	adds	r7, #4
100010ec:	1a5b      	subs	r3, r3, r1
100010ee:	442f      	add	r7, r5
100010f0:	f1ae 0104 	sub.w	r1, lr, #4
100010f4:	4c3d      	ldr	r4, [pc, #244]	@ (100011ec <irq_add_shared_handler+0x1dc>)
100010f6:	1bc9      	subs	r1, r1, r7
100010f8:	f3c1 014a 	ubfx	r1, r1, #1, #11
100010fc:	4321      	orrs	r1, r4
100010fe:	f8a8 1004 	strh.w	r1, [r8, #4]
10001102:	f3c3 034a 	ubfx	r3, r3, #1, #11
10001106:	493a      	ldr	r1, [pc, #232]	@ (100011f0 <irq_add_shared_handler+0x1e0>)
10001108:	4323      	orrs	r3, r4
1000110a:	f8a8 3002 	strh.w	r3, [r8, #2]
1000110e:	f64a 20aa 	movw	r0, #43690	@ 0xaaaa
10001112:	4673      	mov	r3, lr
10001114:	1b5b      	subs	r3, r3, r5
10001116:	415b      	adcs	r3, r3
10001118:	4358      	muls	r0, r3
1000111a:	0d00      	lsrs	r0, r0, #20
1000111c:	f888 6007 	strb.w	r6, [r8, #7]
10001120:	f888 0006 	strb.w	r0, [r8, #6]
10001124:	f8c8 b008 	str.w	fp, [r8, #8]
10001128:	f048 0001 	orr.w	r0, r8, #1
1000112c:	f8ce 1000 	str.w	r1, [lr]
10001130:	e7bf      	b.n	100010b2 <irq_add_shared_handler+0xa2>
10001132:	79d1      	ldrb	r1, [r2, #7]
10001134:	42b1      	cmp	r1, r6
10001136:	d92e      	bls.n	10001196 <irq_add_shared_handler+0x186>
10001138:	4696      	mov	lr, r2
1000113a:	f99e c006 	ldrsb.w	ip, [lr, #6]
1000113e:	eb0c 024c 	add.w	r2, ip, ip, lsl #1
10001142:	f1bc 0f00 	cmp.w	ip, #0
10001146:	eb05 0282 	add.w	r2, r5, r2, lsl #2
1000114a:	daf2      	bge.n	10001132 <irq_add_shared_handler+0x122>
1000114c:	f64b 5101 	movw	r1, #48385	@ 0xbd01
10001150:	f10e 0204 	add.w	r2, lr, #4
10001154:	f1a8 0704 	sub.w	r7, r8, #4
10001158:	1abf      	subs	r7, r7, r2
1000115a:	f3c7 074a 	ubfx	r7, r7, #1, #11
1000115e:	ea6f 47c7 	mvn.w	r7, r7, lsl #19
10001162:	ea6f 47d7 	mvn.w	r7, r7, lsr #19
10001166:	f88e 4006 	strb.w	r4, [lr, #6]
1000116a:	eb03 0804 	add.w	r8, r3, r4
1000116e:	4c20      	ldr	r4, [pc, #128]	@ (100011f0 <irq_add_shared_handler+0x1e0>)
10001170:	eb05 0388 	add.w	r3, r5, r8, lsl #2
10001174:	f8ae 7004 	strh.w	r7, [lr, #4]
10001178:	f845 4028 	str.w	r4, [r5, r8, lsl #2]
1000117c:	8099      	strh	r1, [r3, #4]
1000117e:	f883 c006 	strb.w	ip, [r3, #6]
10001182:	71de      	strb	r6, [r3, #7]
10001184:	f8c3 b008 	str.w	fp, [r3, #8]
10001188:	e793      	b.n	100010b2 <irq_add_shared_handler+0xa2>
1000118a:	f001 f851 	bl	10002230 <hard_assertion_failure>
1000118e:	4b12      	ldr	r3, [pc, #72]	@ (100011d8 <irq_add_shared_handler+0x1c8>)
10001190:	f993 4000 	ldrsb.w	r4, [r3]
10001194:	e759      	b.n	1000104a <irq_add_shared_handler+0x3a>
10001196:	4672      	mov	r2, lr
10001198:	f832 1f04 	ldrh.w	r1, [r2, #4]!
1000119c:	0549      	lsls	r1, r1, #21
1000119e:	d414      	bmi.n	100011ca <irq_add_shared_handler+0x1ba>
100011a0:	1549      	asrs	r1, r1, #21
100011a2:	3102      	adds	r1, #2
100011a4:	eb02 0141 	add.w	r1, r2, r1, lsl #1
100011a8:	9101      	str	r1, [sp, #4]
100011aa:	f06f 0107 	mvn.w	r1, #7
100011ae:	1bc9      	subs	r1, r1, r7
100011b0:	9f01      	ldr	r7, [sp, #4]
100011b2:	1b49      	subs	r1, r1, r5
100011b4:	4439      	add	r1, r7
100011b6:	f3c1 014a 	ubfx	r1, r1, #1, #11
100011ba:	f441 4160 	orr.w	r1, r1, #57344	@ 0xe000
100011be:	e7c9      	b.n	10001154 <irq_add_shared_handler+0x144>
100011c0:	9301      	str	r3, [sp, #4]
100011c2:	f001 f835 	bl	10002230 <hard_assertion_failure>
100011c6:	9b01      	ldr	r3, [sp, #4]
100011c8:	e756      	b.n	10001078 <irq_add_shared_handler+0x68>
100011ca:	f501 11ff 	add.w	r1, r1, #2088960	@ 0x1fe000
100011ce:	f501 51ff 	add.w	r1, r1, #8160	@ 0x1fe0
100011d2:	311f      	adds	r1, #31
100011d4:	e7e4      	b.n	100011a0 <irq_add_shared_handler+0x190>
100011d6:	bf00      	nop
100011d8:	20002885 	.word	0x20002885
100011dc:	20001178 	.word	0x20001178
100011e0:	e000ed00 	.word	0xe000ed00
100011e4:	1000011d 	.word	0x1000011d
100011e8:	200011a8 	.word	0x200011a8
100011ec:	ffffe000 	.word	0xffffe000
100011f0:	47804801 	.word	0x47804801
100011f4:	20002191 	.word	0x20002191

100011f8 <irq_add_tail_to_free_list>:
100011f8:	b5f0      	push	{r4, r5, r6, r7, lr}
100011fa:	f3ef 8505 	mrs	r5, IPSR
100011fe:	b2ed      	uxtb	r5, r5
10001200:	f3ef 8c10 	mrs	ip, PRIMASK
10001204:	b672      	cpsid	i
10001206:	4926      	ldr	r1, [pc, #152]	@ (100012a0 <irq_add_tail_to_free_list+0xa8>)
10001208:	e8d1 2fcf 	ldaexb	r2, [r1]
1000120c:	2301      	movs	r3, #1
1000120e:	2a00      	cmp	r2, #0
10001210:	d1fa      	bne.n	10001208 <irq_add_tail_to_free_list+0x10>
10001212:	e8c1 3f42 	strexb	r2, r3, [r1]
10001216:	2a00      	cmp	r2, #0
10001218:	d1f6      	bne.n	10001208 <irq_add_tail_to_free_list+0x10>
1000121a:	f3bf 8f5f 	dmb	sy
1000121e:	4e21      	ldr	r6, [pc, #132]	@ (100012a4 <irq_add_tail_to_free_list+0xac>)
10001220:	f040 0e01 	orr.w	lr, r0, #1
10001224:	68b4      	ldr	r4, [r6, #8]
10001226:	f64a 23aa 	movw	r3, #43690	@ 0xaaaa
1000122a:	f854 7025 	ldr.w	r7, [r4, r5, lsl #2]
1000122e:	4a1e      	ldr	r2, [pc, #120]	@ (100012a8 <irq_add_tail_to_free_list+0xb0>)
10001230:	4604      	mov	r4, r0
10001232:	1aa4      	subs	r4, r4, r2
10001234:	4164      	adcs	r4, r4
10001236:	4363      	muls	r3, r4
10001238:	0d1b      	lsrs	r3, r3, #20
1000123a:	4577      	cmp	r7, lr
1000123c:	b25b      	sxtb	r3, r3
1000123e:	d01b      	beq.n	10001278 <irq_add_tail_to_free_list+0x80>
10001240:	f992 4006 	ldrsb.w	r4, [r2, #6]
10001244:	429c      	cmp	r4, r3
10001246:	d01c      	beq.n	10001282 <irq_add_tail_to_free_list+0x8a>
10001248:	f992 4012 	ldrsb.w	r4, [r2, #18]
1000124c:	429c      	cmp	r4, r3
1000124e:	d023      	beq.n	10001298 <irq_add_tail_to_free_list+0xa0>
10001250:	f992 401e 	ldrsb.w	r4, [r2, #30]
10001254:	429c      	cmp	r4, r3
10001256:	d021      	beq.n	1000129c <irq_add_tail_to_free_list+0xa4>
10001258:	f992 402a 	ldrsb.w	r4, [r2, #42]	@ 0x2a
1000125c:	429c      	cmp	r4, r3
1000125e:	bf08      	it	eq
10001260:	2403      	moveq	r4, #3
10001262:	d00f      	beq.n	10001284 <irq_add_tail_to_free_list+0x8c>
10001264:	4a11      	ldr	r2, [pc, #68]	@ (100012ac <irq_add_tail_to_free_list+0xb4>)
10001266:	2400      	movs	r4, #0
10001268:	7815      	ldrb	r5, [r2, #0]
1000126a:	7013      	strb	r3, [r2, #0]
1000126c:	7185      	strb	r5, [r0, #6]
1000126e:	e8c1 4f8f 	stlb	r4, [r1]
10001272:	f38c 8810 	msr	PRIMASK, ip
10001276:	bdf0      	pop	{r4, r5, r6, r7, pc}
10001278:	68b2      	ldr	r2, [r6, #8]
1000127a:	4c0d      	ldr	r4, [pc, #52]	@ (100012b0 <irq_add_tail_to_free_list+0xb8>)
1000127c:	f842 4025 	str.w	r4, [r2, r5, lsl #2]
10001280:	e7f0      	b.n	10001264 <irq_add_tail_to_free_list+0x6c>
10001282:	2400      	movs	r4, #0
10001284:	eb04 0444 	add.w	r4, r4, r4, lsl #1
10001288:	eb02 0284 	add.w	r2, r2, r4, lsl #2
1000128c:	24ff      	movs	r4, #255	@ 0xff
1000128e:	7194      	strb	r4, [r2, #6]
10001290:	f64b 5401 	movw	r4, #48385	@ 0xbd01
10001294:	8094      	strh	r4, [r2, #4]
10001296:	e7e5      	b.n	10001264 <irq_add_tail_to_free_list+0x6c>
10001298:	2401      	movs	r4, #1
1000129a:	e7f3      	b.n	10001284 <irq_add_tail_to_free_list+0x8c>
1000129c:	2402      	movs	r4, #2
1000129e:	e7f1      	b.n	10001284 <irq_add_tail_to_free_list+0x8c>
100012a0:	20002191 	.word	0x20002191
100012a4:	e000ed00 	.word	0xe000ed00
100012a8:	20001178 	.word	0x20001178
100012ac:	20002885 	.word	0x20002885
100012b0:	1000011d 	.word	0x1000011d

100012b4 <user_irq_claim_unused>:
100012b4:	b510      	push	{r4, lr}
100012b6:	4c07      	ldr	r4, [pc, #28]	@ (100012d4 <user_irq_claim_unused+0x20>)
100012b8:	b082      	sub	sp, #8
100012ba:	4601      	mov	r1, r0
100012bc:	2305      	movs	r3, #5
100012be:	2200      	movs	r2, #0
100012c0:	9400      	str	r4, [sp, #0]
100012c2:	4805      	ldr	r0, [pc, #20]	@ (100012d8 <user_irq_claim_unused+0x24>)
100012c4:	f7ff fd92 	bl	10000dec <hw_claim_unused_from_range>
100012c8:	2800      	cmp	r0, #0
100012ca:	bfa8      	it	ge
100012cc:	f1c0 0033 	rsbge	r0, r0, #51	@ 0x33
100012d0:	b002      	add	sp, #8
100012d2:	bd10      	pop	{r4, pc}
100012d4:	1000d278 	.word	0x1000d278
100012d8:	20002889 	.word	0x20002889

100012dc <lock_init>:
100012dc:	4b01      	ldr	r3, [pc, #4]	@ (100012e4 <lock_init+0x8>)
100012de:	440b      	add	r3, r1
100012e0:	6003      	str	r3, [r0, #0]
100012e2:	4770      	bx	lr
100012e4:	20002188 	.word	0x20002188

100012e8 <runtime_init_mutex>:
100012e8:	b570      	push	{r4, r5, r6, lr}
100012ea:	4c10      	ldr	r4, [pc, #64]	@ (1000132c <runtime_init_mutex+0x44>)
100012ec:	4d10      	ldr	r5, [pc, #64]	@ (10001330 <runtime_init_mutex+0x48>)
100012ee:	42ac      	cmp	r4, r5
100012f0:	d20e      	bcs.n	10001310 <runtime_init_mutex+0x28>
100012f2:	26ff      	movs	r6, #255	@ 0xff
100012f4:	6823      	ldr	r3, [r4, #0]
100012f6:	b163      	cbz	r3, 10001312 <runtime_init_mutex+0x2a>
100012f8:	f7ff fdc6 	bl	10000e88 <next_striped_spin_lock_num>
100012fc:	4601      	mov	r1, r0
100012fe:	4620      	mov	r0, r4
10001300:	f7ff ffec 	bl	100012dc <lock_init>
10001304:	80a6      	strh	r6, [r4, #4]
10001306:	f3bf 8f5f 	dmb	sy
1000130a:	3408      	adds	r4, #8
1000130c:	42ac      	cmp	r4, r5
1000130e:	d3f1      	bcc.n	100012f4 <runtime_init_mutex+0xc>
10001310:	bd70      	pop	{r4, r5, r6, pc}
10001312:	f7ff fdb9 	bl	10000e88 <next_striped_spin_lock_num>
10001316:	4601      	mov	r1, r0
10001318:	4620      	mov	r0, r4
1000131a:	f7ff ffdf 	bl	100012dc <lock_init>
1000131e:	7126      	strb	r6, [r4, #4]
10001320:	f3bf 8f5f 	dmb	sy
10001324:	3408      	adds	r4, #8
10001326:	42ac      	cmp	r4, r5
10001328:	d3e4      	bcc.n	100012f4 <runtime_init_mutex+0xc>
1000132a:	bd70      	pop	{r4, r5, r6, pc}
1000132c:	200018c8 	.word	0x200018c8
10001330:	200018d0 	.word	0x200018d0

10001334 <mutex_init>:
10001334:	b510      	push	{r4, lr}
10001336:	4604      	mov	r4, r0
10001338:	f7ff fda6 	bl	10000e88 <next_striped_spin_lock_num>
1000133c:	4601      	mov	r1, r0
1000133e:	4620      	mov	r0, r4
10001340:	f7ff ffcc 	bl	100012dc <lock_init>
10001344:	23ff      	movs	r3, #255	@ 0xff
10001346:	7123      	strb	r3, [r4, #4]
10001348:	f3bf 8f5f 	dmb	sy
1000134c:	bd10      	pop	{r4, pc}
1000134e:	bf00      	nop

10001350 <critical_section_init>:
10001350:	b510      	push	{r4, lr}
10001352:	4604      	mov	r4, r0
10001354:	2001      	movs	r0, #1
10001356:	f7ff fda3 	bl	10000ea0 <spin_lock_claim_unused>
1000135a:	4b03      	ldr	r3, [pc, #12]	@ (10001368 <critical_section_init+0x18>)
1000135c:	4403      	add	r3, r0
1000135e:	6023      	str	r3, [r4, #0]
10001360:	f3bf 8f5f 	dmb	sy
10001364:	bd10      	pop	{r4, pc}
10001366:	bf00      	nop
10001368:	20002188 	.word	0x20002188

1000136c <critical_section_init_with_lock_num>:
1000136c:	4b02      	ldr	r3, [pc, #8]	@ (10001378 <critical_section_init_with_lock_num+0xc>)
1000136e:	440b      	add	r3, r1
10001370:	6003      	str	r3, [r0, #0]
10001372:	f3bf 8f5f 	dmb	sy
10001376:	4770      	bx	lr
10001378:	20002188 	.word	0x20002188

1000137c <sleep_until_callback>:
1000137c:	4b0d      	ldr	r3, [pc, #52]	@ (100013b4 <sleep_until_callback+0x38>)
1000137e:	681a      	ldr	r2, [r3, #0]
10001380:	f3ef 8110 	mrs	r1, PRIMASK
10001384:	b672      	cpsid	i
10001386:	e8d2 cfcf 	ldaexb	ip, [r2]
1000138a:	2001      	movs	r0, #1
1000138c:	f1bc 0f00 	cmp.w	ip, #0
10001390:	d1f9      	bne.n	10001386 <sleep_until_callback+0xa>
10001392:	e8c2 0f4c 	strexb	ip, r0, [r2]
10001396:	f1bc 0f00 	cmp.w	ip, #0
1000139a:	d1f4      	bne.n	10001386 <sleep_until_callback+0xa>
1000139c:	f3bf 8f5f 	dmb	sy
100013a0:	2200      	movs	r2, #0
100013a2:	681b      	ldr	r3, [r3, #0]
100013a4:	e8c3 2f8f 	stlb	r2, [r3]
100013a8:	f381 8810 	msr	PRIMASK, r1
100013ac:	bf40      	sev
100013ae:	2000      	movs	r0, #0
100013b0:	2100      	movs	r1, #0
100013b2:	4770      	bx	lr
100013b4:	20002864 	.word	0x20002864

100013b8 <alarm_pool_irq_handler>:
100013b8:	e92d 4ff0 	stmdb	sp!, {r4, r5, r6, r7, r8, r9, sl, fp, lr}
100013bc:	b085      	sub	sp, #20
100013be:	f3ef 8305 	mrs	r3, IPSR
100013c2:	b2db      	uxtb	r3, r3
100013c4:	3b10      	subs	r3, #16
100013c6:	089a      	lsrs	r2, r3, #2
100013c8:	bf1a      	itte	ne
100013ca:	2201      	movne	r2, #1
100013cc:	4daa      	ldrne	r5, [pc, #680]	@ (10001678 <alarm_pool_irq_handler+0x2c0>)
100013ce:	4dab      	ldreq	r5, [pc, #684]	@ (1000167c <alarm_pool_irq_handler+0x2c4>)
100013d0:	f003 0403 	and.w	r4, r3, #3
100013d4:	49aa      	ldr	r1, [pc, #680]	@ (10001680 <alarm_pool_irq_handler+0x2c8>)
100013d6:	eb04 0282 	add.w	r2, r4, r2, lsl #2
100013da:	4628      	mov	r0, r5
100013dc:	f851 6022 	ldr.w	r6, [r1, r2, lsl #2]
100013e0:	9400      	str	r4, [sp, #0]
100013e2:	f000 fc1b 	bl	10001c1c <timer_time_us_64>
100013e6:	2301      	movs	r3, #1
100013e8:	40a3      	lsls	r3, r4
100013ea:	f505 5441 	add.w	r4, r5, #12352	@ 0x3040
100013ee:	6063      	str	r3, [r4, #4]
100013f0:	f9b6 4008 	ldrsh.w	r4, [r6, #8]
100013f4:	9301      	str	r3, [sp, #4]
100013f6:	2c00      	cmp	r4, #0
100013f8:	63eb      	str	r3, [r5, #60]	@ 0x3c
100013fa:	f280 8135 	bge.w	10001668 <alarm_pool_irq_handler+0x2b0>
100013fe:	88b3      	ldrh	r3, [r6, #4]
10001400:	041b      	lsls	r3, r3, #16
10001402:	f140 8084 	bpl.w	1000150e <alarm_pool_irq_handler+0x156>
10001406:	79b3      	ldrb	r3, [r6, #6]
10001408:	2b00      	cmp	r3, #0
1000140a:	f040 80cd 	bne.w	100015a8 <alarm_pool_irq_handler+0x1f0>
1000140e:	4628      	mov	r0, r5
10001410:	f000 fc04 	bl	10001c1c <timer_time_us_64>
10001414:	f9b6 4008 	ldrsh.w	r4, [r6, #8]
10001418:	4602      	mov	r2, r0
1000141a:	2c00      	cmp	r4, #0
1000141c:	460b      	mov	r3, r1
1000141e:	f2c0 8110 	blt.w	10001642 <alarm_pool_irq_handler+0x28a>
10001422:	f8d6 8014 	ldr.w	r8, [r6, #20]
10001426:	eb04 0744 	add.w	r7, r4, r4, lsl #1
1000142a:	eb08 07c7 	add.w	r7, r8, r7, lsl #3
1000142e:	e9d7 ec02 	ldrd	lr, ip, [r7, #8]
10001432:	9f00      	ldr	r7, [sp, #0]
10001434:	4570      	cmp	r0, lr
10001436:	f107 0904 	add.w	r9, r7, #4
1000143a:	eb71 0c0c 	sbcs.w	ip, r1, ip
1000143e:	ea4f 0a44 	mov.w	sl, r4, lsl #1
10001442:	f845 e029 	str.w	lr, [r5, r9, lsl #2]
10001446:	f2c0 80fc 	blt.w	10001642 <alarm_pool_irq_handler+0x28a>
1000144a:	9901      	ldr	r1, [sp, #4]
1000144c:	63e9      	str	r1, [r5, #60]	@ 0x3c
1000144e:	eb0a 0704 	add.w	r7, sl, r4
10001452:	eb08 09c7 	add.w	r9, r8, r7, lsl #3
10001456:	e9d9 ba02 	ldrd	fp, sl, [r9, #8]
1000145a:	455a      	cmp	r2, fp
1000145c:	eb73 030a 	sbcs.w	r3, r3, sl
10001460:	ea4f 07c7 	mov.w	r7, r7, lsl #3
10001464:	dbcb      	blt.n	100013fe <alarm_pool_irq_handler+0x46>
10001466:	f1ba 0f00 	cmp.w	sl, #0
1000146a:	f2c0 80cd 	blt.w	10001608 <alarm_pool_irq_handler+0x250>
1000146e:	f8d9 3010 	ldr.w	r3, [r9, #16]
10001472:	4a84      	ldr	r2, [pc, #528]	@ (10001684 <alarm_pool_irq_handler+0x2cc>)
10001474:	f8d9 1014 	ldr.w	r1, [r9, #20]
10001478:	4293      	cmp	r3, r2
1000147a:	f000 80bf 	beq.w	100015fc <alarm_pool_irq_handler+0x244>
1000147e:	f8b9 0002 	ldrh.w	r0, [r9, #2]
10001482:	b280      	uxth	r0, r0
10001484:	ea40 4004 	orr.w	r0, r0, r4, lsl #16
10001488:	4798      	blx	r3
1000148a:	4602      	mov	r2, r0
1000148c:	460b      	mov	r3, r1
1000148e:	ea52 0103 	orrs.w	r1, r2, r3
10001492:	f000 80b9 	beq.w	10001608 <alarm_pool_irq_handler+0x250>
10001496:	2b00      	cmp	r3, #0
10001498:	f280 80d6 	bge.w	10001648 <alarm_pool_irq_handler+0x290>
1000149c:	ebbb 0b02 	subs.w	fp, fp, r2
100014a0:	eb6a 0a03 	sbc.w	sl, sl, r3
100014a4:	f938 3007 	ldrsh.w	r3, [r8, r7]
100014a8:	e9c9 ba02 	strd	fp, sl, [r9, #8]
100014ac:	2b00      	cmp	r3, #0
100014ae:	dba6      	blt.n	100013fe <alarm_pool_irq_handler+0x46>
100014b0:	6970      	ldr	r0, [r6, #20]
100014b2:	eb03 0243 	add.w	r2, r3, r3, lsl #1
100014b6:	eb00 02c2 	add.w	r2, r0, r2, lsl #3
100014ba:	e9d2 c102 	ldrd	ip, r1, [r2, #8]
100014be:	45e3      	cmp	fp, ip
100014c0:	eb7a 0e01 	sbcs.w	lr, sl, r1
100014c4:	ea4f 0243 	mov.w	r2, r3, lsl #1
100014c8:	db99      	blt.n	100013fe <alarm_pool_irq_handler+0x46>
100014ca:	468e      	mov	lr, r1
100014cc:	46b1      	mov	r9, r6
100014ce:	4661      	mov	r1, ip
100014d0:	f829 3f08 	strh.w	r3, [r9, #8]!
100014d4:	46f4      	mov	ip, lr
100014d6:	e00b      	b.n	100014f0 <alarm_pool_irq_handler+0x138>
100014d8:	f930 3032 	ldrsh.w	r3, [r0, r2, lsl #3]
100014dc:	46f1      	mov	r9, lr
100014de:	2b00      	cmp	r3, #0
100014e0:	db0d      	blt.n	100014fe <alarm_pool_irq_handler+0x146>
100014e2:	eb03 0243 	add.w	r2, r3, r3, lsl #1
100014e6:	eb00 02c2 	add.w	r2, r0, r2, lsl #3
100014ea:	e9d2 1c02 	ldrd	r1, ip, [r2, #8]
100014ee:	005a      	lsls	r2, r3, #1
100014f0:	458b      	cmp	fp, r1
100014f2:	441a      	add	r2, r3
100014f4:	eb7a 0c0c 	sbcs.w	ip, sl, ip
100014f8:	eb00 0ec2 	add.w	lr, r0, r2, lsl #3
100014fc:	daec      	bge.n	100014d8 <alarm_pool_irq_handler+0x120>
100014fe:	f828 3007 	strh.w	r3, [r8, r7]
10001502:	f8a9 4000 	strh.w	r4, [r9]
10001506:	88b3      	ldrh	r3, [r6, #4]
10001508:	041b      	lsls	r3, r3, #16
1000150a:	f53f af7c 	bmi.w	10001406 <alarm_pool_irq_handler+0x4e>
1000150e:	6933      	ldr	r3, [r6, #16]
10001510:	f3ef 8210 	mrs	r2, PRIMASK
10001514:	b672      	cpsid	i
10001516:	e8d3 0fcf 	ldaexb	r0, [r3]
1000151a:	2101      	movs	r1, #1
1000151c:	2800      	cmp	r0, #0
1000151e:	d1fa      	bne.n	10001516 <alarm_pool_irq_handler+0x15e>
10001520:	e8c3 1f40 	strexb	r0, r1, [r3]
10001524:	2800      	cmp	r0, #0
10001526:	d1f6      	bne.n	10001516 <alarm_pool_irq_handler+0x15e>
10001528:	f3bf 8f5f 	dmb	sy
1000152c:	f64f 74ff 	movw	r4, #65535	@ 0xffff
10001530:	88b0      	ldrh	r0, [r6, #4]
10001532:	2300      	movs	r3, #0
10001534:	6931      	ldr	r1, [r6, #16]
10001536:	b200      	sxth	r0, r0
10001538:	80b4      	strh	r4, [r6, #4]
1000153a:	e8c1 3f8f 	stlb	r3, [r1]
1000153e:	f382 8810 	msr	PRIMASK, r2
10001542:	4298      	cmp	r0, r3
10001544:	f6ff af5f 	blt.w	10001406 <alarm_pool_irq_handler+0x4e>
10001548:	4607      	mov	r7, r0
1000154a:	46a9      	mov	r9, r5
1000154c:	6974      	ldr	r4, [r6, #20]
1000154e:	f106 0808 	add.w	r8, r6, #8
10001552:	f9b6 3008 	ldrsh.w	r3, [r6, #8]
10001556:	eb07 0e47 	add.w	lr, r7, r7, lsl #1
1000155a:	eb04 02ce 	add.w	r2, r4, lr, lsl #3
1000155e:	2b00      	cmp	r3, #0
10001560:	46c4      	mov	ip, r8
10001562:	e9d2 5002 	ldrd	r5, r0, [r2, #8]
10001566:	bfa8      	it	ge
10001568:	46b3      	movge	fp, r6
1000156a:	da05      	bge.n	10001578 <alarm_pool_irq_handler+0x1c0>
1000156c:	e00f      	b.n	1000158e <alarm_pool_irq_handler+0x1d6>
1000156e:	f934 303a 	ldrsh.w	r3, [r4, sl, lsl #3]
10001572:	4694      	mov	ip, r2
10001574:	2b00      	cmp	r3, #0
10001576:	db09      	blt.n	1000158c <alarm_pool_irq_handler+0x1d4>
10001578:	eb03 0a43 	add.w	sl, r3, r3, lsl #1
1000157c:	eb04 02ca 	add.w	r2, r4, sl, lsl #3
10001580:	e9d2 6102 	ldrd	r6, r1, [r2, #8]
10001584:	42b5      	cmp	r5, r6
10001586:	eb70 0101 	sbcs.w	r1, r0, r1
1000158a:	daf0      	bge.n	1000156e <alarm_pool_irq_handler+0x1b6>
1000158c:	465e      	mov	r6, fp
1000158e:	f8ac 7000 	strh.w	r7, [ip]
10001592:	f934 703e 	ldrsh.w	r7, [r4, lr, lsl #3]
10001596:	f824 303e 	strh.w	r3, [r4, lr, lsl #3]
1000159a:	2f00      	cmp	r7, #0
1000159c:	dad9      	bge.n	10001552 <alarm_pool_irq_handler+0x19a>
1000159e:	79b3      	ldrb	r3, [r6, #6]
100015a0:	464d      	mov	r5, r9
100015a2:	2b00      	cmp	r3, #0
100015a4:	f43f af33 	beq.w	1000140e <alarm_pool_irq_handler+0x56>
100015a8:	2300      	movs	r3, #0
100015aa:	71b3      	strb	r3, [r6, #6]
100015ac:	f9b6 3008 	ldrsh.w	r3, [r6, #8]
100015b0:	f106 0c08 	add.w	ip, r6, #8
100015b4:	1c5f      	adds	r7, r3, #1
100015b6:	f43f af2a 	beq.w	1000140e <alarm_pool_irq_handler+0x56>
100015ba:	f04f 38ff 	mov.w	r8, #4294967295
100015be:	f04f 39ff 	mov.w	r9, #4294967295
100015c2:	6970      	ldr	r0, [r6, #20]
100015c4:	e003      	b.n	100015ce <alarm_pool_irq_handler+0x216>
100015c6:	468c      	mov	ip, r1
100015c8:	1c5a      	adds	r2, r3, #1
100015ca:	f43f af20 	beq.w	1000140e <alarm_pool_irq_handler+0x56>
100015ce:	eb03 0243 	add.w	r2, r3, r3, lsl #1
100015d2:	eb00 01c2 	add.w	r1, r0, r2, lsl #3
100015d6:	884c      	ldrh	r4, [r1, #2]
100015d8:	461f      	mov	r7, r3
100015da:	0424      	lsls	r4, r4, #16
100015dc:	f930 3032 	ldrsh.w	r3, [r0, r2, lsl #3]
100015e0:	d5f1      	bpl.n	100015c6 <alarm_pool_irq_handler+0x20e>
100015e2:	f9b6 4008 	ldrsh.w	r4, [r6, #8]
100015e6:	e9c1 8902 	strd	r8, r9, [r1, #8]
100015ea:	42bc      	cmp	r4, r7
100015ec:	d0ec      	beq.n	100015c8 <alarm_pool_irq_handler+0x210>
100015ee:	f8ac 3000 	strh.w	r3, [ip]
100015f2:	8931      	ldrh	r1, [r6, #8]
100015f4:	f820 1032 	strh.w	r1, [r0, r2, lsl #3]
100015f8:	8137      	strh	r7, [r6, #8]
100015fa:	e7e5      	b.n	100015c8 <alarm_pool_irq_handler+0x210>
100015fc:	4608      	mov	r0, r1
100015fe:	690b      	ldr	r3, [r1, #16]
10001600:	9102      	str	r1, [sp, #8]
10001602:	4798      	blx	r3
10001604:	2800      	cmp	r0, #0
10001606:	d12b      	bne.n	10001660 <alarm_pool_irq_handler+0x2a8>
10001608:	f838 2007 	ldrh.w	r2, [r8, r7]
1000160c:	6933      	ldr	r3, [r6, #16]
1000160e:	8132      	strh	r2, [r6, #8]
10001610:	f3ef 8210 	mrs	r2, PRIMASK
10001614:	b672      	cpsid	i
10001616:	e8d3 0fcf 	ldaexb	r0, [r3]
1000161a:	2101      	movs	r1, #1
1000161c:	2800      	cmp	r0, #0
1000161e:	d1fa      	bne.n	10001616 <alarm_pool_irq_handler+0x25e>
10001620:	e8c3 1f40 	strexb	r0, r1, [r3]
10001624:	2800      	cmp	r0, #0
10001626:	d1f6      	bne.n	10001616 <alarm_pool_irq_handler+0x25e>
10001628:	f3bf 8f5f 	dmb	sy
1000162c:	8871      	ldrh	r1, [r6, #2]
1000162e:	2300      	movs	r3, #0
10001630:	f828 1007 	strh.w	r1, [r8, r7]
10001634:	6931      	ldr	r1, [r6, #16]
10001636:	8074      	strh	r4, [r6, #2]
10001638:	e8c1 3f8f 	stlb	r3, [r1]
1000163c:	f382 8810 	msr	PRIMASK, r2
10001640:	e6dd      	b.n	100013fe <alarm_pool_irq_handler+0x46>
10001642:	b005      	add	sp, #20
10001644:	e8bd 8ff0 	ldmia.w	sp!, {r4, r5, r6, r7, r8, r9, sl, fp, pc}
10001648:	4628      	mov	r0, r5
1000164a:	e9cd 2302 	strd	r2, r3, [sp, #8]
1000164e:	f000 fae5 	bl	10001c1c <timer_time_us_64>
10001652:	9a02      	ldr	r2, [sp, #8]
10001654:	9b03      	ldr	r3, [sp, #12]
10001656:	eb10 0b02 	adds.w	fp, r0, r2
1000165a:	eb43 0a01 	adc.w	sl, r3, r1
1000165e:	e721      	b.n	100014a4 <alarm_pool_irq_handler+0xec>
10001660:	9902      	ldr	r1, [sp, #8]
10001662:	e9d1 2300 	ldrd	r2, r3, [r1]
10001666:	e712      	b.n	1000148e <alarm_pool_irq_handler+0xd6>
10001668:	4602      	mov	r2, r0
1000166a:	460b      	mov	r3, r1
1000166c:	f8d6 8014 	ldr.w	r8, [r6, #20]
10001670:	ea4f 0a44 	mov.w	sl, r4, lsl #1
10001674:	e6eb      	b.n	1000144e <alarm_pool_irq_handler+0x96>
10001676:	bf00      	nop
10001678:	400b8000 	.word	0x400b8000
1000167c:	400b0000 	.word	0x400b0000
10001680:	200027f8 	.word	0x200027f8
10001684:	100013b9 	.word	0x100013b9

10001688 <runtime_init_default_alarm_pool>:
10001688:	e92d 4ff8 	stmdb	sp!, {r3, r4, r5, r6, r7, r8, r9, sl, fp, lr}
1000168c:	4c36      	ldr	r4, [pc, #216]	@ (10001768 <runtime_init_default_alarm_pool+0xe0>)
1000168e:	6925      	ldr	r5, [r4, #16]
10001690:	b12d      	cbz	r5, 1000169e <runtime_init_default_alarm_pool+0x16>
10001692:	e8bd 4ff8 	ldmia.w	sp!, {r3, r4, r5, r6, r7, r8, r9, sl, fp, lr}
10001696:	210a      	movs	r1, #10
10001698:	4834      	ldr	r0, [pc, #208]	@ (1000176c <runtime_init_default_alarm_pool+0xe4>)
1000169a:	f7ff be1f 	b.w	100012dc <lock_init>
1000169e:	f8df 80e4 	ldr.w	r8, [pc, #228]	@ 10001784 <runtime_init_default_alarm_pool+0xfc>
100016a2:	2103      	movs	r1, #3
100016a4:	4640      	mov	r0, r8
100016a6:	f000 faa7 	bl	10001bf8 <timer_hardware_alarm_claim>
100016aa:	2603      	movs	r6, #3
100016ac:	f8c4 800c 	str.w	r8, [r4, #12]
100016b0:	f7ff fbea 	bl	10000e88 <next_striped_spin_lock_num>
100016b4:	f04f 4c50 	mov.w	ip, #3489660928	@ 0xd0000000
100016b8:	4b2d      	ldr	r3, [pc, #180]	@ (10001770 <runtime_init_default_alarm_pool+0xe8>)
100016ba:	7026      	strb	r6, [r4, #0]
100016bc:	4403      	add	r3, r0
100016be:	6123      	str	r3, [r4, #16]
100016c0:	f8dc 3000 	ldr.w	r3, [ip]
100016c4:	210f      	movs	r1, #15
100016c6:	7063      	strb	r3, [r4, #1]
100016c8:	6963      	ldr	r3, [r4, #20]
100016ca:	8061      	strh	r1, [r4, #2]
100016cc:	831d      	strh	r5, [r3, #24]
100016ce:	f04f 0504 	mov.w	r5, #4
100016d2:	f8a3 5078 	strh.w	r5, [r3, #120]	@ 0x78
100016d6:	f04f 0505 	mov.w	r5, #5
100016da:	f8a3 5090 	strh.w	r5, [r3, #144]	@ 0x90
100016de:	f04f 0506 	mov.w	r5, #6
100016e2:	f8a3 50a8 	strh.w	r5, [r3, #168]	@ 0xa8
100016e6:	f04f 0507 	mov.w	r5, #7
100016ea:	210e      	movs	r1, #14
100016ec:	f64f 72ff 	movw	r2, #65535	@ 0xffff
100016f0:	2708      	movs	r7, #8
100016f2:	f04f 0e0a 	mov.w	lr, #10
100016f6:	f8a3 50c0 	strh.w	r5, [r3, #192]	@ 0xc0
100016fa:	f04f 0901 	mov.w	r9, #1
100016fe:	f04f 0c0c 	mov.w	ip, #12
10001702:	f04f 0b02 	mov.w	fp, #2
10001706:	f04f 0a09 	mov.w	sl, #9
1000170a:	200d      	movs	r0, #13
1000170c:	f04f 050b 	mov.w	r5, #11
10001710:	f8a3 1168 	strh.w	r1, [r3, #360]	@ 0x168
10001714:	4917      	ldr	r1, [pc, #92]	@ (10001774 <runtime_init_default_alarm_pool+0xec>)
10001716:	80a2      	strh	r2, [r4, #4]
10001718:	f8a3 e108 	strh.w	lr, [r3, #264]	@ 0x108
1000171c:	60a1      	str	r1, [r4, #8]
1000171e:	f8a3 b048 	strh.w	fp, [r3, #72]	@ 0x48
10001722:	f8a3 a0f0 	strh.w	sl, [r3, #240]	@ 0xf0
10001726:	f8a3 5120 	strh.w	r5, [r3, #288]	@ 0x120
1000172a:	f8a3 c138 	strh.w	ip, [r3, #312]	@ 0x138
1000172e:	f8a3 0150 	strh.w	r0, [r3, #336]	@ 0x150
10001732:	f8a3 9030 	strh.w	r9, [r3, #48]	@ 0x30
10001736:	f8a3 6060 	strh.w	r6, [r3, #96]	@ 0x60
1000173a:	f8a3 70d8 	strh.w	r7, [r3, #216]	@ 0xd8
1000173e:	801a      	strh	r2, [r3, #0]
10001740:	4b0d      	ldr	r3, [pc, #52]	@ (10001778 <runtime_init_default_alarm_pool+0xf0>)
10001742:	4630      	mov	r0, r6
10001744:	f8c8 7020 	str.w	r7, [r8, #32]
10001748:	490c      	ldr	r1, [pc, #48]	@ (1000177c <runtime_init_default_alarm_pool+0xf4>)
1000174a:	60dc      	str	r4, [r3, #12]
1000174c:	f7ff fc30 	bl	10000fb0 <irq_set_exclusive_handler>
10001750:	4649      	mov	r1, r9
10001752:	4630      	mov	r0, r6
10001754:	f7ff fbe8 	bl	10000f28 <irq_set_enabled>
10001758:	4b09      	ldr	r3, [pc, #36]	@ (10001780 <runtime_init_default_alarm_pool+0xf8>)
1000175a:	210a      	movs	r1, #10
1000175c:	641f      	str	r7, [r3, #64]	@ 0x40
1000175e:	4803      	ldr	r0, [pc, #12]	@ (1000176c <runtime_init_default_alarm_pool+0xe4>)
10001760:	e8bd 4ff8 	ldmia.w	sp!, {r3, r4, r5, r6, r7, r8, r9, sl, fp, lr}
10001764:	f7ff bdba 	b.w	100012dc <lock_init>
10001768:	200011c0 	.word	0x200011c0
1000176c:	20002864 	.word	0x20002864
10001770:	20002188 	.word	0x20002188
10001774:	0010ffff 	.word	0x0010ffff
10001778:	200027f8 	.word	0x200027f8
1000177c:	100013b9 	.word	0x100013b9
10001780:	400b2000 	.word	0x400b2000
10001784:	400b0000 	.word	0x400b0000

10001788 <alarm_pool_get_default>:
10001788:	4800      	ldr	r0, [pc, #0]	@ (1000178c <alarm_pool_get_default+0x4>)
1000178a:	4770      	bx	lr
1000178c:	200011c0 	.word	0x200011c0

10001790 <alarm_pool_add_alarm_at>:
10001790:	b5f8      	push	{r3, r4, r5, r6, r7, lr}
10001792:	f89d 7020 	ldrb.w	r7, [sp, #32]
10001796:	4604      	mov	r4, r0
10001798:	4616      	mov	r6, r2
1000179a:	461d      	mov	r5, r3
1000179c:	b937      	cbnz	r7, 100017ac <alarm_pool_add_alarm_at+0x1c>
1000179e:	f000 fa45 	bl	10001c2c <time_us_64>
100017a2:	4286      	cmp	r6, r0
100017a4:	eb65 0101 	sbc.w	r1, r5, r1
100017a8:	2900      	cmp	r1, #0
100017aa:	db5c      	blt.n	10001866 <alarm_pool_add_alarm_at+0xd6>
100017ac:	6923      	ldr	r3, [r4, #16]
100017ae:	f3ef 8710 	mrs	r7, PRIMASK
100017b2:	b672      	cpsid	i
100017b4:	e8d3 1fcf 	ldaexb	r1, [r3]
100017b8:	2201      	movs	r2, #1
100017ba:	2900      	cmp	r1, #0
100017bc:	d1fa      	bne.n	100017b4 <alarm_pool_add_alarm_at+0x24>
100017be:	e8c3 2f41 	strexb	r1, r2, [r3]
100017c2:	2900      	cmp	r1, #0
100017c4:	d1f6      	bne.n	100017b4 <alarm_pool_add_alarm_at+0x24>
100017c6:	f3bf 8f5f 	dmb	sy
100017ca:	f9b4 c002 	ldrsh.w	ip, [r4, #2]
100017ce:	6963      	ldr	r3, [r4, #20]
100017d0:	eb0c 014c 	add.w	r1, ip, ip, lsl #1
100017d4:	f1bc 0f00 	cmp.w	ip, #0
100017d8:	ea4f 02c1 	mov.w	r2, r1, lsl #3
100017dc:	eb03 01c1 	add.w	r1, r3, r1, lsl #3
100017e0:	db38      	blt.n	10001854 <alarm_pool_add_alarm_at+0xc4>
100017e2:	5a98      	ldrh	r0, [r3, r2]
100017e4:	f04f 0e00 	mov.w	lr, #0
100017e8:	8060      	strh	r0, [r4, #2]
100017ea:	6920      	ldr	r0, [r4, #16]
100017ec:	e8c0 ef8f 	stlb	lr, [r0]
100017f0:	f387 8810 	msr	PRIMASK, r7
100017f4:	9806      	ldr	r0, [sp, #24]
100017f6:	e9c1 6502 	strd	r6, r5, [r1, #8]
100017fa:	6108      	str	r0, [r1, #16]
100017fc:	9807      	ldr	r0, [sp, #28]
100017fe:	6148      	str	r0, [r1, #20]
10001800:	8848      	ldrh	r0, [r1, #2]
10001802:	3001      	adds	r0, #1
10001804:	f3c0 000e 	ubfx	r0, r0, #0, #15
10001808:	2801      	cmp	r0, #1
1000180a:	bf38      	it	cc
1000180c:	2001      	movcc	r0, #1
1000180e:	8048      	strh	r0, [r1, #2]
10001810:	ea40 400c 	orr.w	r0, r0, ip, lsl #16
10001814:	6921      	ldr	r1, [r4, #16]
10001816:	f3ef 8510 	mrs	r5, PRIMASK
1000181a:	b672      	cpsid	i
1000181c:	e8d1 7fcf 	ldaexb	r7, [r1]
10001820:	2601      	movs	r6, #1
10001822:	2f00      	cmp	r7, #0
10001824:	d1fa      	bne.n	1000181c <alarm_pool_add_alarm_at+0x8c>
10001826:	e8c1 6f47 	strexb	r7, r6, [r1]
1000182a:	2f00      	cmp	r7, #0
1000182c:	d1f6      	bne.n	1000181c <alarm_pool_add_alarm_at+0x8c>
1000182e:	f3bf 8f5f 	dmb	sy
10001832:	88a1      	ldrh	r1, [r4, #4]
10001834:	5299      	strh	r1, [r3, r2]
10001836:	f8a4 c004 	strh.w	ip, [r4, #4]
1000183a:	6923      	ldr	r3, [r4, #16]
1000183c:	e8c3 ef8f 	stlb	lr, [r3]
10001840:	f385 8810 	msr	PRIMASK, r5
10001844:	2201      	movs	r2, #1
10001846:	68e3      	ldr	r3, [r4, #12]
10001848:	7821      	ldrb	r1, [r4, #0]
1000184a:	f503 5301 	add.w	r3, r3, #8256	@ 0x2040
1000184e:	408a      	lsls	r2, r1
10001850:	605a      	str	r2, [r3, #4]
10001852:	bdf8      	pop	{r3, r4, r5, r6, r7, pc}
10001854:	2300      	movs	r3, #0
10001856:	6922      	ldr	r2, [r4, #16]
10001858:	e8c2 3f8f 	stlb	r3, [r2]
1000185c:	f387 8810 	msr	PRIMASK, r7
10001860:	f04f 30ff 	mov.w	r0, #4294967295
10001864:	bdf8      	pop	{r3, r4, r5, r6, r7, pc}
10001866:	4638      	mov	r0, r7
10001868:	bdf8      	pop	{r3, r4, r5, r6, r7, pc}
1000186a:	bf00      	nop

1000186c <alarm_pool_add_alarm_at_force_in_context>:
1000186c:	4601      	mov	r1, r0
1000186e:	b5f0      	push	{r4, r5, r6, r7, lr}
10001870:	6900      	ldr	r0, [r0, #16]
10001872:	f3ef 8710 	mrs	r7, PRIMASK
10001876:	b672      	cpsid	i
10001878:	e8d0 5fcf 	ldaexb	r5, [r0]
1000187c:	2401      	movs	r4, #1
1000187e:	2d00      	cmp	r5, #0
10001880:	d1fa      	bne.n	10001878 <alarm_pool_add_alarm_at_force_in_context+0xc>
10001882:	e8c0 4f45 	strexb	r5, r4, [r0]
10001886:	2d00      	cmp	r5, #0
10001888:	d1f6      	bne.n	10001878 <alarm_pool_add_alarm_at_force_in_context+0xc>
1000188a:	f3bf 8f5f 	dmb	sy
1000188e:	f9b1 e002 	ldrsh.w	lr, [r1, #2]
10001892:	694c      	ldr	r4, [r1, #20]
10001894:	eb0e 0c4e 	add.w	ip, lr, lr, lsl #1
10001898:	f1be 0f00 	cmp.w	lr, #0
1000189c:	ea4f 05cc 	mov.w	r5, ip, lsl #3
100018a0:	eb04 0ccc 	add.w	ip, r4, ip, lsl #3
100018a4:	db3d      	blt.n	10001922 <alarm_pool_add_alarm_at_force_in_context+0xb6>
100018a6:	5b60      	ldrh	r0, [r4, r5]
100018a8:	2600      	movs	r6, #0
100018aa:	8048      	strh	r0, [r1, #2]
100018ac:	6908      	ldr	r0, [r1, #16]
100018ae:	e8c0 6f8f 	stlb	r6, [r0]
100018b2:	f387 8810 	msr	PRIMASK, r7
100018b6:	f8bc 0002 	ldrh.w	r0, [ip, #2]
100018ba:	e9cc 2302 	strd	r2, r3, [ip, #8]
100018be:	3001      	adds	r0, #1
100018c0:	f3c0 000e 	ubfx	r0, r0, #0, #15
100018c4:	2801      	cmp	r0, #1
100018c6:	bf38      	it	cc
100018c8:	2001      	movcc	r0, #1
100018ca:	9b05      	ldr	r3, [sp, #20]
100018cc:	f8ac 0002 	strh.w	r0, [ip, #2]
100018d0:	f8cc 3010 	str.w	r3, [ip, #16]
100018d4:	9b06      	ldr	r3, [sp, #24]
100018d6:	ea40 400e 	orr.w	r0, r0, lr, lsl #16
100018da:	f8cc 3014 	str.w	r3, [ip, #20]
100018de:	690b      	ldr	r3, [r1, #16]
100018e0:	f3ef 8210 	mrs	r2, PRIMASK
100018e4:	b672      	cpsid	i
100018e6:	e8d3 cfcf 	ldaexb	ip, [r3]
100018ea:	2701      	movs	r7, #1
100018ec:	f1bc 0f00 	cmp.w	ip, #0
100018f0:	d1f9      	bne.n	100018e6 <alarm_pool_add_alarm_at_force_in_context+0x7a>
100018f2:	e8c3 7f4c 	strexb	ip, r7, [r3]
100018f6:	f1bc 0f00 	cmp.w	ip, #0
100018fa:	d1f4      	bne.n	100018e6 <alarm_pool_add_alarm_at_force_in_context+0x7a>
100018fc:	f3bf 8f5f 	dmb	sy
10001900:	888b      	ldrh	r3, [r1, #4]
10001902:	5363      	strh	r3, [r4, r5]
10001904:	f8a1 e004 	strh.w	lr, [r1, #4]
10001908:	690b      	ldr	r3, [r1, #16]
1000190a:	e8c3 6f8f 	stlb	r6, [r3]
1000190e:	f382 8810 	msr	PRIMASK, r2
10001912:	2201      	movs	r2, #1
10001914:	68cb      	ldr	r3, [r1, #12]
10001916:	7809      	ldrb	r1, [r1, #0]
10001918:	f503 5301 	add.w	r3, r3, #8256	@ 0x2040
1000191c:	408a      	lsls	r2, r1
1000191e:	605a      	str	r2, [r3, #4]
10001920:	bdf0      	pop	{r4, r5, r6, r7, pc}
10001922:	2300      	movs	r3, #0
10001924:	690a      	ldr	r2, [r1, #16]
10001926:	e8c2 3f8f 	stlb	r3, [r2]
1000192a:	f387 8810 	msr	PRIMASK, r7
1000192e:	f04f 30ff 	mov.w	r0, #4294967295
10001932:	bdf0      	pop	{r4, r5, r6, r7, pc}

10001934 <alarm_pool_cancel_alarm>:
10001934:	4603      	mov	r3, r0
10001936:	8940      	ldrh	r0, [r0, #10]
10001938:	ebb0 4f21 	cmp.w	r0, r1, asr #16
1000193c:	dd37      	ble.n	100019ae <alarm_pool_cancel_alarm+0x7a>
1000193e:	6958      	ldr	r0, [r3, #20]
10001940:	140a      	asrs	r2, r1, #16
10001942:	eb02 0242 	add.w	r2, r2, r2, lsl #1
10001946:	b510      	push	{r4, lr}
10001948:	eb00 00c2 	add.w	r0, r0, r2, lsl #3
1000194c:	691c      	ldr	r4, [r3, #16]
1000194e:	f3ef 8c10 	mrs	ip, PRIMASK
10001952:	b672      	cpsid	i
10001954:	e8d4 efcf 	ldaexb	lr, [r4]
10001958:	2201      	movs	r2, #1
1000195a:	f1be 0f00 	cmp.w	lr, #0
1000195e:	d1f9      	bne.n	10001954 <alarm_pool_cancel_alarm+0x20>
10001960:	e8c4 2f4e 	strexb	lr, r2, [r4]
10001964:	f1be 0f00 	cmp.w	lr, #0
10001968:	d1f4      	bne.n	10001954 <alarm_pool_cancel_alarm+0x20>
1000196a:	f3bf 8f5f 	dmb	sy
1000196e:	8842      	ldrh	r2, [r0, #2]
10001970:	b289      	uxth	r1, r1
10001972:	b292      	uxth	r2, r2
10001974:	428a      	cmp	r2, r1
10001976:	d007      	beq.n	10001988 <alarm_pool_cancel_alarm+0x54>
10001978:	2200      	movs	r2, #0
1000197a:	691b      	ldr	r3, [r3, #16]
1000197c:	e8c3 2f8f 	stlb	r2, [r3]
10001980:	f38c 8810 	msr	PRIMASK, ip
10001984:	2000      	movs	r0, #0
10001986:	bd10      	pop	{r4, pc}
10001988:	f442 4200 	orr.w	r2, r2, #32768	@ 0x8000
1000198c:	8042      	strh	r2, [r0, #2]
1000198e:	2101      	movs	r1, #1
10001990:	2200      	movs	r2, #0
10001992:	6918      	ldr	r0, [r3, #16]
10001994:	7199      	strb	r1, [r3, #6]
10001996:	e8c0 2f8f 	stlb	r2, [r0]
1000199a:	f38c 8810 	msr	PRIMASK, ip
1000199e:	781c      	ldrb	r4, [r3, #0]
100019a0:	68da      	ldr	r2, [r3, #12]
100019a2:	4608      	mov	r0, r1
100019a4:	f502 5301 	add.w	r3, r2, #8256	@ 0x2040
100019a8:	40a1      	lsls	r1, r4
100019aa:	6059      	str	r1, [r3, #4]
100019ac:	bd10      	pop	{r4, pc}
100019ae:	2000      	movs	r0, #0
100019b0:	4770      	bx	lr
100019b2:	bf00      	nop

100019b4 <alarm_pool_core_num>:
100019b4:	7840      	ldrb	r0, [r0, #1]
100019b6:	4770      	bx	lr

100019b8 <sleep_until>:
100019b8:	e92d 41f0 	stmdb	sp!, {r4, r5, r6, r7, r8, lr}
100019bc:	1f86      	subs	r6, r0, #6
100019be:	f141 35ff 	adc.w	r5, r1, #4294967295
100019c2:	42b0      	cmp	r0, r6
100019c4:	eb71 0305 	sbcs.w	r3, r1, r5
100019c8:	bf38      	it	cc
100019ca:	2600      	movcc	r6, #0
100019cc:	b082      	sub	sp, #8
100019ce:	bf38      	it	cc
100019d0:	4635      	movcc	r5, r6
100019d2:	4604      	mov	r4, r0
100019d4:	460f      	mov	r7, r1
100019d6:	f000 f929 	bl	10001c2c <time_us_64>
100019da:	1a30      	subs	r0, r6, r0
100019dc:	eb65 0301 	sbc.w	r3, r5, r1
100019e0:	2801      	cmp	r0, #1
100019e2:	f173 0300 	sbcs.w	r3, r3, #0
100019e6:	da06      	bge.n	100019f6 <sleep_until+0x3e>
100019e8:	4620      	mov	r0, r4
100019ea:	4639      	mov	r1, r7
100019ec:	b002      	add	sp, #8
100019ee:	e8bd 41f0 	ldmia.w	sp!, {r4, r5, r6, r7, r8, lr}
100019f2:	f000 b957 	b.w	10001ca4 <busy_wait_until>
100019f6:	f000 f919 	bl	10001c2c <time_us_64>
100019fa:	4286      	cmp	r6, r0
100019fc:	eb65 0101 	sbc.w	r1, r5, r1
10001a00:	2900      	cmp	r1, #0
10001a02:	db0a      	blt.n	10001a1a <sleep_until+0x62>
10001a04:	2100      	movs	r1, #0
10001a06:	4b17      	ldr	r3, [pc, #92]	@ (10001a64 <sleep_until+0xac>)
10001a08:	4632      	mov	r2, r6
10001a0a:	9300      	str	r3, [sp, #0]
10001a0c:	4816      	ldr	r0, [pc, #88]	@ (10001a68 <sleep_until+0xb0>)
10001a0e:	462b      	mov	r3, r5
10001a10:	9101      	str	r1, [sp, #4]
10001a12:	f7ff ff2b 	bl	1000186c <alarm_pool_add_alarm_at_force_in_context>
10001a16:	2800      	cmp	r0, #0
10001a18:	dbe6      	blt.n	100019e8 <sleep_until+0x30>
10001a1a:	f04f 0c00 	mov.w	ip, #0
10001a1e:	4813      	ldr	r0, [pc, #76]	@ (10001a6c <sleep_until+0xb4>)
10001a20:	4a13      	ldr	r2, [pc, #76]	@ (10001a70 <sleep_until+0xb8>)
10001a22:	6a43      	ldr	r3, [r0, #36]	@ 0x24
10001a24:	429d      	cmp	r5, r3
10001a26:	d804      	bhi.n	10001a32 <sleep_until+0x7a>
10001a28:	6a81      	ldr	r1, [r0, #40]	@ 0x28
10001a2a:	42b1      	cmp	r1, r6
10001a2c:	d2dc      	bcs.n	100019e8 <sleep_until+0x30>
10001a2e:	429d      	cmp	r5, r3
10001a30:	d1da      	bne.n	100019e8 <sleep_until+0x30>
10001a32:	6813      	ldr	r3, [r2, #0]
10001a34:	f3ef 8110 	mrs	r1, PRIMASK
10001a38:	b672      	cpsid	i
10001a3a:	e8d3 8fcf 	ldaexb	r8, [r3]
10001a3e:	f05f 0e01 	movs.w	lr, #1
10001a42:	f1b8 0f00 	cmp.w	r8, #0
10001a46:	d1f8      	bne.n	10001a3a <sleep_until+0x82>
10001a48:	e8c3 ef48 	strexb	r8, lr, [r3]
10001a4c:	f1b8 0f00 	cmp.w	r8, #0
10001a50:	d1f3      	bne.n	10001a3a <sleep_until+0x82>
10001a52:	f3bf 8f5f 	dmb	sy
10001a56:	6813      	ldr	r3, [r2, #0]
10001a58:	e8c3 cf8f 	stlb	ip, [r3]
10001a5c:	f381 8810 	msr	PRIMASK, r1
10001a60:	bf20      	wfe
10001a62:	e7de      	b.n	10001a22 <sleep_until+0x6a>
10001a64:	1000137d 	.word	0x1000137d
10001a68:	200011c0 	.word	0x200011c0
10001a6c:	400b0000 	.word	0x400b0000
10001a70:	20002864 	.word	0x20002864

10001a74 <sleep_us>:
10001a74:	b538      	push	{r3, r4, r5, lr}
10001a76:	4604      	mov	r4, r0
10001a78:	460d      	mov	r5, r1
10001a7a:	f000 f8d7 	bl	10001c2c <time_us_64>
10001a7e:	f04f 32ff 	mov.w	r2, #4294967295
10001a82:	f06f 4300 	mvn.w	r3, #2147483648	@ 0x80000000
10001a86:	1820      	adds	r0, r4, r0
10001a88:	eb45 0101 	adc.w	r1, r5, r1
10001a8c:	4282      	cmp	r2, r0
10001a8e:	eb73 0401 	sbcs.w	r4, r3, r1
10001a92:	bf38      	it	cc
10001a94:	4619      	movcc	r1, r3
10001a96:	e8bd 4038 	ldmia.w	sp!, {r3, r4, r5, lr}
10001a9a:	bf38      	it	cc
10001a9c:	4610      	movcc	r0, r2
10001a9e:	f7ff bf8b 	b.w	100019b8 <sleep_until>
10001aa2:	bf00      	nop

10001aa4 <sleep_ms>:
10001aa4:	b510      	push	{r4, lr}
10001aa6:	4604      	mov	r4, r0
10001aa8:	f000 f8c0 	bl	10001c2c <time_us_64>
10001aac:	f44f 737a 	mov.w	r3, #1000	@ 0x3e8
10001ab0:	f04f 3cff 	mov.w	ip, #4294967295
10001ab4:	f06f 4200 	mvn.w	r2, #2147483648	@ 0x80000000
10001ab8:	fbe4 0103 	umlal	r0, r1, r4, r3
10001abc:	e8bd 4010 	ldmia.w	sp!, {r4, lr}
10001ac0:	4584      	cmp	ip, r0
10001ac2:	eb72 0301 	sbcs.w	r3, r2, r1
10001ac6:	bf3c      	itt	cc
10001ac8:	4660      	movcc	r0, ip
10001aca:	4611      	movcc	r1, r2
10001acc:	f7ff bf74 	b.w	100019b8 <sleep_until>

10001ad0 <best_effort_wfe_or_timeout>:
10001ad0:	e92d 43f8 	stmdb	sp!, {r3, r4, r5, r6, r7, r8, r9, lr}
10001ad4:	4605      	mov	r5, r0
10001ad6:	460c      	mov	r4, r1
10001ad8:	f3ef 8605 	mrs	r6, IPSR
10001adc:	b2f6      	uxtb	r6, r6
10001ade:	b18e      	cbz	r6, 10001b04 <best_effort_wfe_or_timeout+0x34>
10001ae0:	4b42      	ldr	r3, [pc, #264]	@ (10001bec <best_effort_wfe_or_timeout+0x11c>)
10001ae2:	6a58      	ldr	r0, [r3, #36]	@ 0x24
10001ae4:	42a0      	cmp	r0, r4
10001ae6:	d305      	bcc.n	10001af4 <best_effort_wfe_or_timeout+0x24>
10001ae8:	6a9b      	ldr	r3, [r3, #40]	@ 0x28
10001aea:	42ab      	cmp	r3, r5
10001aec:	d305      	bcc.n	10001afa <best_effort_wfe_or_timeout+0x2a>
10001aee:	2001      	movs	r0, #1
10001af0:	e8bd 83f8 	ldmia.w	sp!, {r3, r4, r5, r6, r7, r8, r9, pc}
10001af4:	2000      	movs	r0, #0
10001af6:	e8bd 83f8 	ldmia.w	sp!, {r3, r4, r5, r6, r7, r8, r9, pc}
10001afa:	1b00      	subs	r0, r0, r4
10001afc:	bf18      	it	ne
10001afe:	2001      	movne	r0, #1
10001b00:	e8bd 83f8 	ldmia.w	sp!, {r3, r4, r5, r6, r7, r8, r9, pc}
10001b04:	f000 f892 	bl	10001c2c <time_us_64>
10001b08:	4285      	cmp	r5, r0
10001b0a:	eb64 0101 	sbc.w	r1, r4, r1
10001b0e:	2900      	cmp	r1, #0
10001b10:	dbe6      	blt.n	10001ae0 <best_effort_wfe_or_timeout+0x10>
10001b12:	4b37      	ldr	r3, [pc, #220]	@ (10001bf0 <best_effort_wfe_or_timeout+0x120>)
10001b14:	691a      	ldr	r2, [r3, #16]
10001b16:	f3ef 8e10 	mrs	lr, PRIMASK
10001b1a:	b672      	cpsid	i
10001b1c:	e8d2 0fcf 	ldaexb	r0, [r2]
10001b20:	2101      	movs	r1, #1
10001b22:	2800      	cmp	r0, #0
10001b24:	d1fa      	bne.n	10001b1c <best_effort_wfe_or_timeout+0x4c>
10001b26:	e8c2 1f40 	strexb	r0, r1, [r2]
10001b2a:	2800      	cmp	r0, #0
10001b2c:	d1f6      	bne.n	10001b1c <best_effort_wfe_or_timeout+0x4c>
10001b2e:	f3bf 8f5f 	dmb	sy
10001b32:	f9b3 0002 	ldrsh.w	r0, [r3, #2]
10001b36:	695f      	ldr	r7, [r3, #20]
10001b38:	eb00 0240 	add.w	r2, r0, r0, lsl #1
10001b3c:	2800      	cmp	r0, #0
10001b3e:	ea4f 0cc2 	mov.w	ip, r2, lsl #3
10001b42:	eb07 02c2 	add.w	r2, r7, r2, lsl #3
10001b46:	db4a      	blt.n	10001bde <best_effort_wfe_or_timeout+0x10e>
10001b48:	f837 100c 	ldrh.w	r1, [r7, ip]
10001b4c:	8059      	strh	r1, [r3, #2]
10001b4e:	6919      	ldr	r1, [r3, #16]
10001b50:	e8c1 6f8f 	stlb	r6, [r1]
10001b54:	f38e 8810 	msr	PRIMASK, lr
10001b58:	8851      	ldrh	r1, [r2, #2]
10001b5a:	f8df e098 	ldr.w	lr, [pc, #152]	@ 10001bf4 <best_effort_wfe_or_timeout+0x124>
10001b5e:	3101      	adds	r1, #1
10001b60:	f3c1 010e 	ubfx	r1, r1, #0, #15
10001b64:	2901      	cmp	r1, #1
10001b66:	bf38      	it	cc
10001b68:	2101      	movcc	r1, #1
10001b6a:	e9c2 5402 	strd	r5, r4, [r2, #8]
10001b6e:	8051      	strh	r1, [r2, #2]
10001b70:	6156      	str	r6, [r2, #20]
10001b72:	f8c2 e010 	str.w	lr, [r2, #16]
10001b76:	ea41 4100 	orr.w	r1, r1, r0, lsl #16
10001b7a:	691a      	ldr	r2, [r3, #16]
10001b7c:	f3ef 8e10 	mrs	lr, PRIMASK
10001b80:	b672      	cpsid	i
10001b82:	e8d2 9fcf 	ldaexb	r9, [r2]
10001b86:	f05f 0801 	movs.w	r8, #1
10001b8a:	f1b9 0f00 	cmp.w	r9, #0
10001b8e:	d1f8      	bne.n	10001b82 <best_effort_wfe_or_timeout+0xb2>
10001b90:	e8c2 8f49 	strexb	r9, r8, [r2]
10001b94:	f1b9 0f00 	cmp.w	r9, #0
10001b98:	d1f3      	bne.n	10001b82 <best_effort_wfe_or_timeout+0xb2>
10001b9a:	f3bf 8f5f 	dmb	sy
10001b9e:	889a      	ldrh	r2, [r3, #4]
10001ba0:	f827 200c 	strh.w	r2, [r7, ip]
10001ba4:	691a      	ldr	r2, [r3, #16]
10001ba6:	8098      	strh	r0, [r3, #4]
10001ba8:	e8c2 6f8f 	stlb	r6, [r2]
10001bac:	f38e 8810 	msr	PRIMASK, lr
10001bb0:	2201      	movs	r2, #1
10001bb2:	7818      	ldrb	r0, [r3, #0]
10001bb4:	68db      	ldr	r3, [r3, #12]
10001bb6:	4082      	lsls	r2, r0
10001bb8:	f503 5301 	add.w	r3, r3, #8256	@ 0x2040
10001bbc:	605a      	str	r2, [r3, #4]
10001bbe:	bf40      	sev
10001bc0:	bf20      	wfe
10001bc2:	4b0a      	ldr	r3, [pc, #40]	@ (10001bec <best_effort_wfe_or_timeout+0x11c>)
10001bc4:	6a5a      	ldr	r2, [r3, #36]	@ 0x24
10001bc6:	42a2      	cmp	r2, r4
10001bc8:	d304      	bcc.n	10001bd4 <best_effort_wfe_or_timeout+0x104>
10001bca:	6a9b      	ldr	r3, [r3, #40]	@ 0x28
10001bcc:	42ab      	cmp	r3, r5
10001bce:	d202      	bcs.n	10001bd6 <best_effort_wfe_or_timeout+0x106>
10001bd0:	42a2      	cmp	r2, r4
10001bd2:	d100      	bne.n	10001bd6 <best_effort_wfe_or_timeout+0x106>
10001bd4:	bf20      	wfe
10001bd6:	4806      	ldr	r0, [pc, #24]	@ (10001bf0 <best_effort_wfe_or_timeout+0x120>)
10001bd8:	f7ff feac 	bl	10001934 <alarm_pool_cancel_alarm>
10001bdc:	e780      	b.n	10001ae0 <best_effort_wfe_or_timeout+0x10>
10001bde:	691b      	ldr	r3, [r3, #16]
10001be0:	e8c3 6f8f 	stlb	r6, [r3]
10001be4:	f38e 8810 	msr	PRIMASK, lr
10001be8:	e77a      	b.n	10001ae0 <best_effort_wfe_or_timeout+0x10>
10001bea:	bf00      	nop
10001bec:	400b0000 	.word	0x400b0000
10001bf0:	200011c0 	.word	0x200011c0
10001bf4:	1000137d 	.word	0x1000137d

10001bf8 <timer_hardware_alarm_claim>:
10001bf8:	b410      	push	{r4}
10001bfa:	4b05      	ldr	r3, [pc, #20]	@ (10001c10 <timer_hardware_alarm_claim+0x18>)
10001bfc:	4c05      	ldr	r4, [pc, #20]	@ (10001c14 <timer_hardware_alarm_claim+0x1c>)
10001bfe:	4a06      	ldr	r2, [pc, #24]	@ (10001c18 <timer_hardware_alarm_claim+0x20>)
10001c00:	42a0      	cmp	r0, r4
10001c02:	bf14      	ite	ne
10001c04:	4618      	movne	r0, r3
10001c06:	1c58      	addeq	r0, r3, #1
10001c08:	f85d 4b04 	ldr.w	r4, [sp], #4
10001c0c:	f7ff b8c2 	b.w	10000d94 <hw_claim_or_assert>
10001c10:	20002328 	.word	0x20002328
10001c14:	400b8000 	.word	0x400b8000
10001c18:	1000d294 	.word	0x1000d294

10001c1c <timer_time_us_64>:
10001c1c:	4603      	mov	r3, r0
10001c1e:	6a41      	ldr	r1, [r0, #36]	@ 0x24
10001c20:	460a      	mov	r2, r1
10001c22:	6a98      	ldr	r0, [r3, #40]	@ 0x28
10001c24:	6a59      	ldr	r1, [r3, #36]	@ 0x24
10001c26:	428a      	cmp	r2, r1
10001c28:	d1fa      	bne.n	10001c20 <timer_time_us_64+0x4>
10001c2a:	4770      	bx	lr

10001c2c <time_us_64>:
10001c2c:	4b03      	ldr	r3, [pc, #12]	@ (10001c3c <time_us_64+0x10>)
10001c2e:	6a59      	ldr	r1, [r3, #36]	@ 0x24
10001c30:	460a      	mov	r2, r1
10001c32:	6a98      	ldr	r0, [r3, #40]	@ 0x28
10001c34:	6a59      	ldr	r1, [r3, #36]	@ 0x24
10001c36:	4291      	cmp	r1, r2
10001c38:	d1fa      	bne.n	10001c30 <time_us_64+0x4>
10001c3a:	4770      	bx	lr
10001c3c:	400b0000 	.word	0x400b0000

10001c40 <busy_wait_us>:
10001c40:	b410      	push	{r4}
10001c42:	4a17      	ldr	r2, [pc, #92]	@ (10001ca0 <busy_wait_us+0x60>)
10001c44:	6a53      	ldr	r3, [r2, #36]	@ 0x24
10001c46:	469c      	mov	ip, r3
10001c48:	6a94      	ldr	r4, [r2, #40]	@ 0x28
10001c4a:	6a53      	ldr	r3, [r2, #36]	@ 0x24
10001c4c:	4563      	cmp	r3, ip
10001c4e:	d1fa      	bne.n	10001c46 <busy_wait_us+0x6>
10001c50:	1900      	adds	r0, r0, r4
10001c52:	4159      	adcs	r1, r3
10001c54:	f04f 0200 	mov.w	r2, #0
10001c58:	bf28      	it	cs
10001c5a:	2201      	movcs	r2, #1
10001c5c:	4603      	mov	r3, r0
10001c5e:	b1ca      	cbz	r2, 10001c94 <busy_wait_us+0x54>
10001c60:	4b0f      	ldr	r3, [pc, #60]	@ (10001ca0 <busy_wait_us+0x60>)
10001c62:	6a59      	ldr	r1, [r3, #36]	@ 0x24
10001c64:	1c4b      	adds	r3, r1, #1
10001c66:	bf08      	it	eq
10001c68:	460b      	moveq	r3, r1
10001c6a:	d008      	beq.n	10001c7e <busy_wait_us+0x3e>
10001c6c:	f04f 31ff 	mov.w	r1, #4294967295
10001c70:	460b      	mov	r3, r1
10001c72:	480b      	ldr	r0, [pc, #44]	@ (10001ca0 <busy_wait_us+0x60>)
10001c74:	6a42      	ldr	r2, [r0, #36]	@ 0x24
10001c76:	428a      	cmp	r2, r1
10001c78:	d3fc      	bcc.n	10001c74 <busy_wait_us+0x34>
10001c7a:	428a      	cmp	r2, r1
10001c7c:	d107      	bne.n	10001c8e <busy_wait_us+0x4e>
10001c7e:	4a08      	ldr	r2, [pc, #32]	@ (10001ca0 <busy_wait_us+0x60>)
10001c80:	e002      	b.n	10001c88 <busy_wait_us+0x48>
10001c82:	6a50      	ldr	r0, [r2, #36]	@ 0x24
10001c84:	4288      	cmp	r0, r1
10001c86:	d102      	bne.n	10001c8e <busy_wait_us+0x4e>
10001c88:	6a90      	ldr	r0, [r2, #40]	@ 0x28
10001c8a:	4298      	cmp	r0, r3
10001c8c:	d3f9      	bcc.n	10001c82 <busy_wait_us+0x42>
10001c8e:	f85d 4b04 	ldr.w	r4, [sp], #4
10001c92:	4770      	bx	lr
10001c94:	4a02      	ldr	r2, [pc, #8]	@ (10001ca0 <busy_wait_us+0x60>)
10001c96:	6a52      	ldr	r2, [r2, #36]	@ 0x24
10001c98:	4291      	cmp	r1, r2
10001c9a:	d8ea      	bhi.n	10001c72 <busy_wait_us+0x32>
10001c9c:	e7ed      	b.n	10001c7a <busy_wait_us+0x3a>
10001c9e:	bf00      	nop
10001ca0:	400b0000 	.word	0x400b0000

10001ca4 <busy_wait_until>:
10001ca4:	4a07      	ldr	r2, [pc, #28]	@ (10001cc4 <busy_wait_until+0x20>)
10001ca6:	6a53      	ldr	r3, [r2, #36]	@ 0x24
10001ca8:	4299      	cmp	r1, r3
10001caa:	d8fc      	bhi.n	10001ca6 <busy_wait_until+0x2>
10001cac:	4299      	cmp	r1, r3
10001cae:	d107      	bne.n	10001cc0 <busy_wait_until+0x1c>
10001cb0:	4b04      	ldr	r3, [pc, #16]	@ (10001cc4 <busy_wait_until+0x20>)
10001cb2:	e002      	b.n	10001cba <busy_wait_until+0x16>
10001cb4:	6a5a      	ldr	r2, [r3, #36]	@ 0x24
10001cb6:	4291      	cmp	r1, r2
10001cb8:	d102      	bne.n	10001cc0 <busy_wait_until+0x1c>
10001cba:	6a9a      	ldr	r2, [r3, #40]	@ 0x28
10001cbc:	4282      	cmp	r2, r0
10001cbe:	d3f9      	bcc.n	10001cb4 <busy_wait_until+0x10>
10001cc0:	4770      	bx	lr
10001cc2:	bf00      	nop
10001cc4:	400b0000 	.word	0x400b0000

10001cc8 <clock_configure_undivided>:
10001cc8:	eb00 0c40 	add.w	ip, r0, r0, lsl #1
10001ccc:	ea4f 0c8c 	mov.w	ip, ip, lsl #2
10001cd0:	f10c 4c80 	add.w	ip, ip, #1073741824	@ 0x40000000
10001cd4:	f50c 3c80 	add.w	ip, ip, #65536	@ 0x10000
10001cd8:	b5f0      	push	{r4, r5, r6, r7, lr}
10001cda:	4616      	mov	r6, r2
10001cdc:	f8dc 2004 	ldr.w	r2, [ip, #4]
10001ce0:	1f05      	subs	r5, r0, #4
10001ce2:	f5b2 3f80 	cmp.w	r2, #65536	@ 0x10000
10001ce6:	bf38      	it	cc
10001ce8:	f44f 3280 	movcc.w	r2, #65536	@ 0x10000
10001cec:	b2ed      	uxtb	r5, r5
10001cee:	bf38      	it	cc
10001cf0:	f8cc 2004 	strcc.w	r2, [ip, #4]
10001cf4:	2d01      	cmp	r5, #1
10001cf6:	d92a      	bls.n	10001d4e <clock_configure_undivided+0x86>
10001cf8:	f44f 6700 	mov.w	r7, #2048	@ 0x800
10001cfc:	4c25      	ldr	r4, [pc, #148]	@ (10001d94 <clock_configure_undivided+0xcc>)
10001cfe:	f50c 5240 	add.w	r2, ip, #12288	@ 0x3000
10001d02:	6017      	str	r7, [r2, #0]
10001d04:	f854 2020 	ldr.w	r2, [r4, r0, lsl #2]
10001d08:	b9b2      	cbnz	r2, 10001d38 <clock_configure_undivided+0x70>
10001d0a:	f8dc 2000 	ldr.w	r2, [ip]
10001d0e:	2d01      	cmp	r5, #1
10001d10:	ea82 1246 	eor.w	r2, r2, r6, lsl #5
10001d14:	f002 02e0 	and.w	r2, r2, #224	@ 0xe0
10001d18:	f50c 5680 	add.w	r6, ip, #4096	@ 0x1000
10001d1c:	6032      	str	r2, [r6, #0]
10001d1e:	d92a      	bls.n	10001d76 <clock_configure_undivided+0xae>
10001d20:	f44f 6100 	mov.w	r1, #2048	@ 0x800
10001d24:	f844 3020 	str.w	r3, [r4, r0, lsl #2]
10001d28:	f44f 3380 	mov.w	r3, #65536	@ 0x10000
10001d2c:	f50c 5200 	add.w	r2, ip, #8192	@ 0x2000
10001d30:	6011      	str	r1, [r2, #0]
10001d32:	f8cc 3004 	str.w	r3, [ip, #4]
10001d36:	bdf0      	pop	{r4, r5, r6, r7, pc}
10001d38:	6967      	ldr	r7, [r4, #20]
10001d3a:	fbb7 fef2 	udiv	lr, r7, r2
10001d3e:	f10e 0e01 	add.w	lr, lr, #1
10001d42:	eb0e 0e4e 	add.w	lr, lr, lr, lsl #1
10001d46:	f1be 0e03 	subs.w	lr, lr, #3
10001d4a:	d2fc      	bcs.n	10001d46 <clock_configure_undivided+0x7e>
10001d4c:	e7dd      	b.n	10001d0a <clock_configure_undivided+0x42>
10001d4e:	2901      	cmp	r1, #1
10001d50:	d1d2      	bne.n	10001cf8 <clock_configure_undivided+0x30>
10001d52:	2403      	movs	r4, #3
10001d54:	f50c 5240 	add.w	r2, ip, #12288	@ 0x3000
10001d58:	6014      	str	r4, [r2, #0]
10001d5a:	f8dc 2008 	ldr.w	r2, [ip, #8]
10001d5e:	07d2      	lsls	r2, r2, #31
10001d60:	d5fb      	bpl.n	10001d5a <clock_configure_undivided+0x92>
10001d62:	f8dc 2000 	ldr.w	r2, [ip]
10001d66:	4c0b      	ldr	r4, [pc, #44]	@ (10001d94 <clock_configure_undivided+0xcc>)
10001d68:	ea82 1246 	eor.w	r2, r2, r6, lsl #5
10001d6c:	f002 02e0 	and.w	r2, r2, #224	@ 0xe0
10001d70:	f50c 5680 	add.w	r6, ip, #4096	@ 0x1000
10001d74:	6032      	str	r2, [r6, #0]
10001d76:	2201      	movs	r2, #1
10001d78:	f8dc 5000 	ldr.w	r5, [ip]
10001d7c:	404d      	eors	r5, r1
10001d7e:	f005 0503 	and.w	r5, r5, #3
10001d82:	6035      	str	r5, [r6, #0]
10001d84:	fa02 f101 	lsl.w	r1, r2, r1
10001d88:	f8dc 2008 	ldr.w	r2, [ip, #8]
10001d8c:	420a      	tst	r2, r1
10001d8e:	d0fb      	beq.n	10001d88 <clock_configure_undivided+0xc0>
10001d90:	e7c6      	b.n	10001d20 <clock_configure_undivided+0x58>
10001d92:	bf00      	nop
10001d94:	20002330 	.word	0x20002330

10001d98 <clock_get_hz>:
10001d98:	4b01      	ldr	r3, [pc, #4]	@ (10001da0 <clock_get_hz+0x8>)
10001d9a:	f853 0020 	ldr.w	r0, [r3, r0, lsl #2]
10001d9e:	4770      	bx	lr
10001da0:	20002330 	.word	0x20002330

10001da4 <set_sys_clock_pll>:
10001da4:	4b58      	ldr	r3, [pc, #352]	@ (10001f08 <set_sys_clock_pll+0x164>)
10001da6:	e92d 43f0 	stmdb	sp!, {r4, r5, r6, r7, r8, r9, lr}
10001daa:	6c1c      	ldr	r4, [r3, #64]	@ 0x40
10001dac:	4617      	mov	r7, r2
10001dae:	f5b4 3f80 	cmp.w	r4, #65536	@ 0x10000
10001db2:	bf38      	it	cc
10001db4:	f44f 3280 	movcc.w	r2, #65536	@ 0x10000
10001db8:	460e      	mov	r6, r1
10001dba:	f04f 0103 	mov.w	r1, #3
10001dbe:	4680      	mov	r8, r0
10001dc0:	bf38      	it	cc
10001dc2:	641a      	strcc	r2, [r3, #64]	@ 0x40
10001dc4:	4a51      	ldr	r2, [pc, #324]	@ (10001f0c <set_sys_clock_pll+0x168>)
10001dc6:	4b50      	ldr	r3, [pc, #320]	@ (10001f08 <set_sys_clock_pll+0x164>)
10001dc8:	b083      	sub	sp, #12
10001dca:	63d1      	str	r1, [r2, #60]	@ 0x3c
10001dcc:	6c5c      	ldr	r4, [r3, #68]	@ 0x44
10001dce:	07e5      	lsls	r5, r4, #31
10001dd0:	d5fc      	bpl.n	10001dcc <set_sys_clock_pll+0x28>
10001dd2:	6bda      	ldr	r2, [r3, #60]	@ 0x3c
10001dd4:	494e      	ldr	r1, [pc, #312]	@ (10001f10 <set_sys_clock_pll+0x16c>)
10001dd6:	f082 0220 	eor.w	r2, r2, #32
10001dda:	f002 02e0 	and.w	r2, r2, #224	@ 0xe0
10001dde:	63ca      	str	r2, [r1, #60]	@ 0x3c
10001de0:	6bdb      	ldr	r3, [r3, #60]	@ 0x3c
10001de2:	4d49      	ldr	r5, [pc, #292]	@ (10001f08 <set_sys_clock_pll+0x164>)
10001de4:	f083 0301 	eor.w	r3, r3, #1
10001de8:	f003 0303 	and.w	r3, r3, #3
10001dec:	63cb      	str	r3, [r1, #60]	@ 0x3c
10001dee:	6c6c      	ldr	r4, [r5, #68]	@ 0x44
10001df0:	07a4      	lsls	r4, r4, #30
10001df2:	d5fc      	bpl.n	10001dee <set_sys_clock_pll+0x4a>
10001df4:	f44f 6200 	mov.w	r2, #2048	@ 0x800
10001df8:	f44f 3980 	mov.w	r9, #65536	@ 0x10000
10001dfc:	4b45      	ldr	r3, [pc, #276]	@ (10001f14 <set_sys_clock_pll+0x170>)
10001dfe:	4c46      	ldr	r4, [pc, #280]	@ (10001f18 <set_sys_clock_pll+0x174>)
10001e00:	63da      	str	r2, [r3, #60]	@ 0x3c
10001e02:	4b46      	ldr	r3, [pc, #280]	@ (10001f1c <set_sys_clock_pll+0x178>)
10001e04:	4642      	mov	r2, r8
10001e06:	6163      	str	r3, [r4, #20]
10001e08:	2101      	movs	r1, #1
10001e0a:	4633      	mov	r3, r6
10001e0c:	f8c5 9040 	str.w	r9, [r5, #64]	@ 0x40
10001e10:	4843      	ldr	r0, [pc, #268]	@ (10001f20 <set_sys_clock_pll+0x17c>)
10001e12:	9700      	str	r7, [sp, #0]
10001e14:	f000 f956 	bl	100020c4 <pll_init>
10001e18:	f44f 6100 	mov.w	r1, #2048	@ 0x800
10001e1c:	6b6b      	ldr	r3, [r5, #52]	@ 0x34
10001e1e:	fb07 f606 	mul.w	r6, r7, r6
10001e22:	454b      	cmp	r3, r9
10001e24:	bf38      	it	cc
10001e26:	f8c5 9034 	strcc.w	r9, [r5, #52]	@ 0x34
10001e2a:	4b38      	ldr	r3, [pc, #224]	@ (10001f0c <set_sys_clock_pll+0x168>)
10001e2c:	6922      	ldr	r2, [r4, #16]
10001e2e:	fbb8 f6f6 	udiv	r6, r8, r6
10001e32:	6319      	str	r1, [r3, #48]	@ 0x30
10001e34:	b13a      	cbz	r2, 10001e46 <set_sys_clock_pll+0xa2>
10001e36:	6963      	ldr	r3, [r4, #20]
10001e38:	fbb3 f3f2 	udiv	r3, r3, r2
10001e3c:	3301      	adds	r3, #1
10001e3e:	eb03 0343 	add.w	r3, r3, r3, lsl #1
10001e42:	3b03      	subs	r3, #3
10001e44:	d2fd      	bcs.n	10001e42 <set_sys_clock_pll+0x9e>
10001e46:	4b30      	ldr	r3, [pc, #192]	@ (10001f08 <set_sys_clock_pll+0x164>)
10001e48:	4931      	ldr	r1, [pc, #196]	@ (10001f10 <set_sys_clock_pll+0x16c>)
10001e4a:	6b1a      	ldr	r2, [r3, #48]	@ 0x30
10001e4c:	f002 02e0 	and.w	r2, r2, #224	@ 0xe0
10001e50:	630a      	str	r2, [r1, #48]	@ 0x30
10001e52:	6b1a      	ldr	r2, [r3, #48]	@ 0x30
10001e54:	f082 0202 	eor.w	r2, r2, #2
10001e58:	f002 0203 	and.w	r2, r2, #3
10001e5c:	630a      	str	r2, [r1, #48]	@ 0x30
10001e5e:	6b99      	ldr	r1, [r3, #56]	@ 0x38
10001e60:	0748      	lsls	r0, r1, #29
10001e62:	d5fc      	bpl.n	10001e5e <set_sys_clock_pll+0xba>
10001e64:	f44f 6500 	mov.w	r5, #2048	@ 0x800
10001e68:	f44f 3280 	mov.w	r2, #65536	@ 0x10000
10001e6c:	4929      	ldr	r1, [pc, #164]	@ (10001f14 <set_sys_clock_pll+0x170>)
10001e6e:	630d      	str	r5, [r1, #48]	@ 0x30
10001e70:	492c      	ldr	r1, [pc, #176]	@ (10001f24 <set_sys_clock_pll+0x180>)
10001e72:	635a      	str	r2, [r3, #52]	@ 0x34
10001e74:	6121      	str	r1, [r4, #16]
10001e76:	6c19      	ldr	r1, [r3, #64]	@ 0x40
10001e78:	4291      	cmp	r1, r2
10001e7a:	f04f 0103 	mov.w	r1, #3
10001e7e:	bf38      	it	cc
10001e80:	641a      	strcc	r2, [r3, #64]	@ 0x40
10001e82:	4b22      	ldr	r3, [pc, #136]	@ (10001f0c <set_sys_clock_pll+0x168>)
10001e84:	4a20      	ldr	r2, [pc, #128]	@ (10001f08 <set_sys_clock_pll+0x164>)
10001e86:	63d9      	str	r1, [r3, #60]	@ 0x3c
10001e88:	6c53      	ldr	r3, [r2, #68]	@ 0x44
10001e8a:	07d9      	lsls	r1, r3, #31
10001e8c:	d5fc      	bpl.n	10001e88 <set_sys_clock_pll+0xe4>
10001e8e:	6bd3      	ldr	r3, [r2, #60]	@ 0x3c
10001e90:	4d1f      	ldr	r5, [pc, #124]	@ (10001f10 <set_sys_clock_pll+0x16c>)
10001e92:	f003 03e0 	and.w	r3, r3, #224	@ 0xe0
10001e96:	63eb      	str	r3, [r5, #60]	@ 0x3c
10001e98:	6bd3      	ldr	r3, [r2, #60]	@ 0x3c
10001e9a:	491b      	ldr	r1, [pc, #108]	@ (10001f08 <set_sys_clock_pll+0x164>)
10001e9c:	f083 0301 	eor.w	r3, r3, #1
10001ea0:	f003 0303 	and.w	r3, r3, #3
10001ea4:	63eb      	str	r3, [r5, #60]	@ 0x3c
10001ea6:	6c4b      	ldr	r3, [r1, #68]	@ 0x44
10001ea8:	079b      	lsls	r3, r3, #30
10001eaa:	d5fc      	bpl.n	10001ea6 <set_sys_clock_pll+0x102>
10001eac:	f44f 3380 	mov.w	r3, #65536	@ 0x10000
10001eb0:	f44f 6500 	mov.w	r5, #2048	@ 0x800
10001eb4:	4a17      	ldr	r2, [pc, #92]	@ (10001f14 <set_sys_clock_pll+0x170>)
10001eb6:	6166      	str	r6, [r4, #20]
10001eb8:	63d5      	str	r5, [r2, #60]	@ 0x3c
10001eba:	640b      	str	r3, [r1, #64]	@ 0x40
10001ebc:	6cca      	ldr	r2, [r1, #76]	@ 0x4c
10001ebe:	429a      	cmp	r2, r3
10001ec0:	bf38      	it	cc
10001ec2:	64cb      	strcc	r3, [r1, #76]	@ 0x4c
10001ec4:	f44f 6100 	mov.w	r1, #2048	@ 0x800
10001ec8:	4b10      	ldr	r3, [pc, #64]	@ (10001f0c <set_sys_clock_pll+0x168>)
10001eca:	69a2      	ldr	r2, [r4, #24]
10001ecc:	6499      	str	r1, [r3, #72]	@ 0x48
10001ece:	b13a      	cbz	r2, 10001ee0 <set_sys_clock_pll+0x13c>
10001ed0:	6963      	ldr	r3, [r4, #20]
10001ed2:	fbb3 f3f2 	udiv	r3, r3, r2
10001ed6:	3301      	adds	r3, #1
10001ed8:	eb03 0343 	add.w	r3, r3, r3, lsl #1
10001edc:	3b03      	subs	r3, #3
10001ede:	d2fd      	bcs.n	10001edc <set_sys_clock_pll+0x138>
10001ee0:	f44f 6000 	mov.w	r0, #2048	@ 0x800
10001ee4:	f44f 3180 	mov.w	r1, #65536	@ 0x10000
10001ee8:	4a07      	ldr	r2, [pc, #28]	@ (10001f08 <set_sys_clock_pll+0x164>)
10001eea:	4d09      	ldr	r5, [pc, #36]	@ (10001f10 <set_sys_clock_pll+0x16c>)
10001eec:	6c93      	ldr	r3, [r2, #72]	@ 0x48
10001eee:	f083 0340 	eor.w	r3, r3, #64	@ 0x40
10001ef2:	f003 03e0 	and.w	r3, r3, #224	@ 0xe0
10001ef6:	64ab      	str	r3, [r5, #72]	@ 0x48
10001ef8:	4b06      	ldr	r3, [pc, #24]	@ (10001f14 <set_sys_clock_pll+0x170>)
10001efa:	4d08      	ldr	r5, [pc, #32]	@ (10001f1c <set_sys_clock_pll+0x178>)
10001efc:	61a5      	str	r5, [r4, #24]
10001efe:	6498      	str	r0, [r3, #72]	@ 0x48
10001f00:	64d1      	str	r1, [r2, #76]	@ 0x4c
10001f02:	b003      	add	sp, #12
10001f04:	e8bd 83f0 	ldmia.w	sp!, {r4, r5, r6, r7, r8, r9, pc}
10001f08:	40010000 	.word	0x40010000
10001f0c:	40013000 	.word	0x40013000
10001f10:	40011000 	.word	0x40011000
10001f14:	40012000 	.word	0x40012000
10001f18:	20002330 	.word	0x20002330
10001f1c:	02dc6c00 	.word	0x02dc6c00
10001f20:	40050000 	.word	0x40050000
10001f24:	00b71b00 	.word	0x00b71b00

10001f28 <check_sys_clock_khz>:
10001f28:	e92d 4ff0 	stmdb	sp!, {r4, r5, r6, r7, r8, r9, sl, fp, lr}
10001f2c:	f44f 78a0 	mov.w	r8, #320	@ 0x140
10001f30:	4699      	mov	r9, r3
10001f32:	b085      	sub	sp, #20
10001f34:	e9cd 1202 	strd	r1, r2, [sp, #8]
10001f38:	4c5f      	ldr	r4, [pc, #380]	@ (100020b8 <check_sys_clock_khz+0x190>)
10001f3a:	f8df a184 	ldr.w	sl, [pc, #388]	@ 100020c0 <check_sys_clock_khz+0x198>
10001f3e:	4554      	cmp	r4, sl
10001f40:	d90a      	bls.n	10001f58 <check_sys_clock_khz+0x30>
10001f42:	f108 38ff 	add.w	r8, r8, #4294967295
10001f46:	f5a4 543b 	sub.w	r4, r4, #11968	@ 0x2ec0
10001f4a:	f1b8 0f0f 	cmp.w	r8, #15
10001f4e:	f1a4 0420 	sub.w	r4, r4, #32
10001f52:	d1f4      	bne.n	10001f3e <check_sys_clock_khz+0x16>
10001f54:	2000      	movs	r0, #0
10001f56:	e069      	b.n	1000202c <check_sys_clock_khz+0x104>
10001f58:	2307      	movs	r3, #7
10001f5a:	f504 2237 	add.w	r2, r4, #749568	@ 0xb7000
10001f5e:	9401      	str	r4, [sp, #4]
10001f60:	fb03 f403 	mul.w	r4, r3, r3
10001f64:	f502 72d8 	add.w	r2, r2, #432	@ 0x1b0
10001f68:	fbb2 fef4 	udiv	lr, r2, r4
10001f6c:	4570      	cmp	r0, lr
10001f6e:	f04f 0c01 	mov.w	ip, #1
10001f72:	f04f 0702 	mov.w	r7, #2
10001f76:	f04f 0603 	mov.w	r6, #3
10001f7a:	f04f 0504 	mov.w	r5, #4
10001f7e:	f04f 0105 	mov.w	r1, #5
10001f82:	d03f      	beq.n	10002004 <check_sys_clock_khz+0xdc>
10001f84:	f1b3 0e01 	subs.w	lr, r3, #1
10001f88:	f000 8094 	beq.w	100020b4 <check_sys_clock_khz+0x18c>
10001f8c:	fb0e f403 	mul.w	r4, lr, r3
10001f90:	fbb2 fbf4 	udiv	fp, r2, r4
10001f94:	4558      	cmp	r0, fp
10001f96:	d04c      	beq.n	10002032 <check_sys_clock_khz+0x10a>
10001f98:	b319      	cbz	r1, 10001fe2 <check_sys_clock_khz+0xba>
10001f9a:	fb01 f403 	mul.w	r4, r1, r3
10001f9e:	fbb2 fbf4 	udiv	fp, r2, r4
10001fa2:	4558      	cmp	r0, fp
10001fa4:	d04f      	beq.n	10002046 <check_sys_clock_khz+0x11e>
10001fa6:	b1e5      	cbz	r5, 10001fe2 <check_sys_clock_khz+0xba>
10001fa8:	fb05 f403 	mul.w	r4, r5, r3
10001fac:	fbb2 fbf4 	udiv	fp, r2, r4
10001fb0:	4558      	cmp	r0, fp
10001fb2:	d053      	beq.n	1000205c <check_sys_clock_khz+0x134>
10001fb4:	b1ae      	cbz	r6, 10001fe2 <check_sys_clock_khz+0xba>
10001fb6:	fb06 f403 	mul.w	r4, r6, r3
10001fba:	fbb2 fbf4 	udiv	fp, r2, r4
10001fbe:	4558      	cmp	r0, fp
10001fc0:	d057      	beq.n	10002072 <check_sys_clock_khz+0x14a>
10001fc2:	b177      	cbz	r7, 10001fe2 <check_sys_clock_khz+0xba>
10001fc4:	fb07 f403 	mul.w	r4, r7, r3
10001fc8:	fbb2 fbf4 	udiv	fp, r2, r4
10001fcc:	4558      	cmp	r0, fp
10001fce:	d05b      	beq.n	10002088 <check_sys_clock_khz+0x160>
10001fd0:	f1bc 0f00 	cmp.w	ip, #0
10001fd4:	d005      	beq.n	10001fe2 <check_sys_clock_khz+0xba>
10001fd6:	fb0c f403 	mul.w	r4, ip, r3
10001fda:	fbb2 fbf4 	udiv	fp, r2, r4
10001fde:	4583      	cmp	fp, r0
10001fe0:	d05d      	beq.n	1000209e <check_sys_clock_khz+0x176>
10001fe2:	4673      	mov	r3, lr
10001fe4:	fb03 f403 	mul.w	r4, r3, r3
10001fe8:	fbb2 fef4 	udiv	lr, r2, r4
10001fec:	4570      	cmp	r0, lr
10001fee:	f101 31ff 	add.w	r1, r1, #4294967295
10001ff2:	f105 35ff 	add.w	r5, r5, #4294967295
10001ff6:	f106 36ff 	add.w	r6, r6, #4294967295
10001ffa:	f107 37ff 	add.w	r7, r7, #4294967295
10001ffe:	f10c 3cff 	add.w	ip, ip, #4294967295
10002002:	d1bf      	bne.n	10001f84 <check_sys_clock_khz+0x5c>
10002004:	fb04 2410 	mls	r4, r4, r0, r2
10002008:	2c00      	cmp	r4, #0
1000200a:	d1bb      	bne.n	10001f84 <check_sys_clock_khz+0x5c>
1000200c:	469e      	mov	lr, r3
1000200e:	464a      	mov	r2, r9
10002010:	f8dd b008 	ldr.w	fp, [sp, #8]
10002014:	f8dd 900c 	ldr.w	r9, [sp, #12]
10002018:	2001      	movs	r0, #1
1000201a:	4928      	ldr	r1, [pc, #160]	@ (100020bc <check_sys_clock_khz+0x194>)
1000201c:	fb01 f108 	mul.w	r1, r1, r8
10002020:	f8cb 1000 	str.w	r1, [fp]
10002024:	f8c9 3000 	str.w	r3, [r9]
10002028:	f8c2 e000 	str.w	lr, [r2]
1000202c:	b005      	add	sp, #20
1000202e:	e8bd 8ff0 	ldmia.w	sp!, {r4, r5, r6, r7, r8, r9, sl, fp, pc}
10002032:	fb04 2410 	mls	r4, r4, r0, r2
10002036:	2c00      	cmp	r4, #0
10002038:	d1ae      	bne.n	10001f98 <check_sys_clock_khz+0x70>
1000203a:	464a      	mov	r2, r9
1000203c:	f8dd b008 	ldr.w	fp, [sp, #8]
10002040:	f8dd 900c 	ldr.w	r9, [sp, #12]
10002044:	e7e8      	b.n	10002018 <check_sys_clock_khz+0xf0>
10002046:	fb04 2410 	mls	r4, r4, r0, r2
1000204a:	2c00      	cmp	r4, #0
1000204c:	d1ab      	bne.n	10001fa6 <check_sys_clock_khz+0x7e>
1000204e:	464a      	mov	r2, r9
10002050:	468e      	mov	lr, r1
10002052:	f8dd b008 	ldr.w	fp, [sp, #8]
10002056:	f8dd 900c 	ldr.w	r9, [sp, #12]
1000205a:	e7dd      	b.n	10002018 <check_sys_clock_khz+0xf0>
1000205c:	fb04 2410 	mls	r4, r4, r0, r2
10002060:	2c00      	cmp	r4, #0
10002062:	d1a7      	bne.n	10001fb4 <check_sys_clock_khz+0x8c>
10002064:	464a      	mov	r2, r9
10002066:	46ae      	mov	lr, r5
10002068:	f8dd b008 	ldr.w	fp, [sp, #8]
1000206c:	f8dd 900c 	ldr.w	r9, [sp, #12]
10002070:	e7d2      	b.n	10002018 <check_sys_clock_khz+0xf0>
10002072:	fb04 2410 	mls	r4, r4, r0, r2
10002076:	2c00      	cmp	r4, #0
10002078:	d1a3      	bne.n	10001fc2 <check_sys_clock_khz+0x9a>
1000207a:	464a      	mov	r2, r9
1000207c:	46b6      	mov	lr, r6
1000207e:	f8dd b008 	ldr.w	fp, [sp, #8]
10002082:	f8dd 900c 	ldr.w	r9, [sp, #12]
10002086:	e7c7      	b.n	10002018 <check_sys_clock_khz+0xf0>
10002088:	fb04 2410 	mls	r4, r4, r0, r2
1000208c:	2c00      	cmp	r4, #0
1000208e:	d19f      	bne.n	10001fd0 <check_sys_clock_khz+0xa8>
10002090:	464a      	mov	r2, r9
10002092:	46be      	mov	lr, r7
10002094:	f8dd b008 	ldr.w	fp, [sp, #8]
10002098:	f8dd 900c 	ldr.w	r9, [sp, #12]
1000209c:	e7bc      	b.n	10002018 <check_sys_clock_khz+0xf0>
1000209e:	fb04 2410 	mls	r4, r4, r0, r2
100020a2:	2c00      	cmp	r4, #0
100020a4:	d19d      	bne.n	10001fe2 <check_sys_clock_khz+0xba>
100020a6:	464a      	mov	r2, r9
100020a8:	46e6      	mov	lr, ip
100020aa:	f8dd b008 	ldr.w	fp, [sp, #8]
100020ae:	f8dd 900c 	ldr.w	r9, [sp, #12]
100020b2:	e7b1      	b.n	10002018 <check_sys_clock_khz+0xf0>
100020b4:	9c01      	ldr	r4, [sp, #4]
100020b6:	e744      	b.n	10001f42 <check_sys_clock_khz+0x1a>
100020b8:	002f2650 	.word	0x002f2650
100020bc:	00b71b00 	.word	0x00b71b00
100020c0:	000cf850 	.word	0x000cf850

100020c4 <pll_init>:
100020c4:	b470      	push	{r4, r5, r6}
100020c6:	9d03      	ldr	r5, [sp, #12]
100020c8:	6804      	ldr	r4, [r0, #0]
100020ca:	032d      	lsls	r5, r5, #12
100020cc:	ea45 4503 	orr.w	r5, r5, r3, lsl #16
100020d0:	4b1b      	ldr	r3, [pc, #108]	@ (10002140 <pll_init+0x7c>)
100020d2:	2c00      	cmp	r4, #0
100020d4:	fbb3 f3f1 	udiv	r3, r3, r1
100020d8:	fbb2 f6f3 	udiv	r6, r2, r3
100020dc:	db1f      	blt.n	1000211e <pll_init+0x5a>
100020de:	4a19      	ldr	r2, [pc, #100]	@ (10002144 <pll_init+0x80>)
100020e0:	4b19      	ldr	r3, [pc, #100]	@ (10002148 <pll_init+0x84>)
100020e2:	4290      	cmp	r0, r2
100020e4:	bf14      	ite	ne
100020e6:	f44f 4280 	movne.w	r2, #16384	@ 0x4000
100020ea:	f44f 4200 	moveq.w	r2, #32768	@ 0x8000
100020ee:	4c17      	ldr	r4, [pc, #92]	@ (1000214c <pll_init+0x88>)
100020f0:	601a      	str	r2, [r3, #0]
100020f2:	f503 5380 	add.w	r3, r3, #4096	@ 0x1000
100020f6:	601a      	str	r2, [r3, #0]
100020f8:	68a3      	ldr	r3, [r4, #8]
100020fa:	ea32 0303 	bics.w	r3, r2, r3
100020fe:	d1fb      	bne.n	100020f8 <pll_init+0x34>
10002100:	2221      	movs	r2, #33	@ 0x21
10002102:	f500 5340 	add.w	r3, r0, #12288	@ 0x3000
10002106:	3304      	adds	r3, #4
10002108:	6001      	str	r1, [r0, #0]
1000210a:	6086      	str	r6, [r0, #8]
1000210c:	601a      	str	r2, [r3, #0]
1000210e:	6802      	ldr	r2, [r0, #0]
10002110:	2a00      	cmp	r2, #0
10002112:	dafc      	bge.n	1000210e <pll_init+0x4a>
10002114:	2208      	movs	r2, #8
10002116:	60c5      	str	r5, [r0, #12]
10002118:	601a      	str	r2, [r3, #0]
1000211a:	bc70      	pop	{r4, r5, r6}
1000211c:	4770      	bx	lr
1000211e:	6803      	ldr	r3, [r0, #0]
10002120:	f003 033f 	and.w	r3, r3, #63	@ 0x3f
10002124:	428b      	cmp	r3, r1
10002126:	d1da      	bne.n	100020de <pll_init+0x1a>
10002128:	6883      	ldr	r3, [r0, #8]
1000212a:	f3c3 030b 	ubfx	r3, r3, #0, #12
1000212e:	42b3      	cmp	r3, r6
10002130:	d1d5      	bne.n	100020de <pll_init+0x1a>
10002132:	68c3      	ldr	r3, [r0, #12]
10002134:	f403 23ee 	and.w	r3, r3, #487424	@ 0x77000
10002138:	42ab      	cmp	r3, r5
1000213a:	d1d0      	bne.n	100020de <pll_init+0x1a>
1000213c:	e7ed      	b.n	1000211a <pll_init+0x56>
1000213e:	bf00      	nop
10002140:	00b71b00 	.word	0x00b71b00
10002144:	40058000 	.word	0x40058000
10002148:	40022000 	.word	0x40022000
1000214c:	40020000 	.word	0x40020000

10002150 <watchdog_reboot>:
10002150:	b430      	push	{r4, r5}
10002152:	f04f 4480 	mov.w	r4, #1073741824	@ 0x40000000
10002156:	4b1c      	ldr	r3, [pc, #112]	@ (100021c8 <watchdog_reboot+0x78>)
10002158:	601c      	str	r4, [r3, #0]
1000215a:	b1e0      	cbz	r0, 10002196 <watchdog_reboot+0x46>
1000215c:	4c1b      	ldr	r4, [pc, #108]	@ (100021cc <watchdog_reboot+0x7c>)
1000215e:	f5a3 5340 	sub.w	r3, r3, #12288	@ 0x3000
10002162:	61dc      	str	r4, [r3, #28]
10002164:	4c1a      	ldr	r4, [pc, #104]	@ (100021d0 <watchdog_reboot+0x80>)
10002166:	f040 0001 	orr.w	r0, r0, #1
1000216a:	4044      	eors	r4, r0
1000216c:	621c      	str	r4, [r3, #32]
1000216e:	6259      	str	r1, [r3, #36]	@ 0x24
10002170:	6298      	str	r0, [r3, #40]	@ 0x28
10002172:	f04f 4580 	mov.w	r5, #1073741824	@ 0x40000000
10002176:	f04f 61e0 	mov.w	r1, #117440512	@ 0x7000000
1000217a:	4b13      	ldr	r3, [pc, #76]	@ (100021c8 <watchdog_reboot+0x78>)
1000217c:	4815      	ldr	r0, [pc, #84]	@ (100021d4 <watchdog_reboot+0x84>)
1000217e:	4c16      	ldr	r4, [pc, #88]	@ (100021d8 <watchdog_reboot+0x88>)
10002180:	601d      	str	r5, [r3, #0]
10002182:	6084      	str	r4, [r0, #8]
10002184:	6019      	str	r1, [r3, #0]
10002186:	b94a      	cbnz	r2, 1000219c <watchdog_reboot+0x4c>
10002188:	bc30      	pop	{r4, r5}
1000218a:	f04f 4200 	mov.w	r2, #2147483648	@ 0x80000000
1000218e:	f5a3 5380 	sub.w	r3, r3, #4096	@ 0x1000
10002192:	601a      	str	r2, [r3, #0]
10002194:	4770      	bx	lr
10002196:	4b11      	ldr	r3, [pc, #68]	@ (100021dc <watchdog_reboot+0x8c>)
10002198:	61d8      	str	r0, [r3, #28]
1000219a:	e7ea      	b.n	10002172 <watchdog_reboot+0x22>
1000219c:	f44f 737a 	mov.w	r3, #1000	@ 0x3e8
100021a0:	fb03 f202 	mul.w	r2, r3, r2
100021a4:	f1b2 7f80 	cmp.w	r2, #16777216	@ 0x1000000
100021a8:	bf2a      	itet	cs
100021aa:	f06f 437f 	mvncs.w	r3, #4278190080	@ 0xff000000
100021ae:	4613      	movcc	r3, r2
100021b0:	461a      	movcs	r2, r3
100021b2:	f04f 4180 	mov.w	r1, #1073741824	@ 0x40000000
100021b6:	4c0a      	ldr	r4, [pc, #40]	@ (100021e0 <watchdog_reboot+0x90>)
100021b8:	4808      	ldr	r0, [pc, #32]	@ (100021dc <watchdog_reboot+0x8c>)
100021ba:	6023      	str	r3, [r4, #0]
100021bc:	4b09      	ldr	r3, [pc, #36]	@ (100021e4 <watchdog_reboot+0x94>)
100021be:	6042      	str	r2, [r0, #4]
100021c0:	bc30      	pop	{r4, r5}
100021c2:	6019      	str	r1, [r3, #0]
100021c4:	4770      	bx	lr
100021c6:	bf00      	nop
100021c8:	400db000 	.word	0x400db000
100021cc:	b007c0d3 	.word	0xb007c0d3
100021d0:	4ff83f2d 	.word	0x4ff83f2d
100021d4:	4001a000 	.word	0x4001a000
100021d8:	01fffff3 	.word	0x01fffff3
100021dc:	400d8000 	.word	0x400d8000
100021e0:	200027c4 	.word	0x200027c4
100021e4:	400da000 	.word	0x400da000

100021e8 <tick_start>:
100021e8:	2301      	movs	r3, #1
100021ea:	eb00 0040 	add.w	r0, r0, r0, lsl #1
100021ee:	0080      	lsls	r0, r0, #2
100021f0:	f100 4080 	add.w	r0, r0, #1073741824	@ 0x40000000
100021f4:	f500 1084 	add.w	r0, r0, #1081344	@ 0x108000
100021f8:	6041      	str	r1, [r0, #4]
100021fa:	6003      	str	r3, [r0, #0]
100021fc:	4770      	bx	lr
100021fe:	bf00      	nop

10002200 <xosc_init>:
10002200:	b410      	push	{r4}
10002202:	202f      	movs	r0, #47	@ 0x2f
10002204:	f44f 642a 	mov.w	r4, #2720	@ 0xaa0
10002208:	4a05      	ldr	r2, [pc, #20]	@ (10002220 <xosc_init+0x20>)
1000220a:	4b06      	ldr	r3, [pc, #24]	@ (10002224 <xosc_init+0x24>)
1000220c:	4906      	ldr	r1, [pc, #24]	@ (10002228 <xosc_init+0x28>)
1000220e:	6014      	str	r4, [r2, #0]
10002210:	60d0      	str	r0, [r2, #12]
10002212:	6019      	str	r1, [r3, #0]
10002214:	6853      	ldr	r3, [r2, #4]
10002216:	2b00      	cmp	r3, #0
10002218:	dafc      	bge.n	10002214 <xosc_init+0x14>
1000221a:	f85d 4b04 	ldr.w	r4, [sp], #4
1000221e:	4770      	bx	lr
10002220:	40048000 	.word	0x40048000
10002224:	4004a000 	.word	0x4004a000
10002228:	00fab000 	.word	0x00fab000

1000222c <first_per_core_initializer>:
1000222c:	4770      	bx	lr
1000222e:	bf00      	nop

10002230 <hard_assertion_failure>:
10002230:	b508      	push	{r3, lr}
10002232:	4801      	ldr	r0, [pc, #4]	@ (10002238 <hard_assertion_failure+0x8>)
10002234:	f7fe fd7a 	bl	10000d2c <panic>
10002238:	1000d2b8 	.word	0x1000d2b8

1000223c <runtime_run_initializers>:
1000223c:	b538      	push	{r3, r4, r5, lr}
1000223e:	4c05      	ldr	r4, [pc, #20]	@ (10002254 <runtime_run_initializers+0x18>)
10002240:	4d05      	ldr	r5, [pc, #20]	@ (10002258 <runtime_run_initializers+0x1c>)
10002242:	42ac      	cmp	r4, r5
10002244:	d204      	bcs.n	10002250 <runtime_run_initializers+0x14>
10002246:	f854 3b04 	ldr.w	r3, [r4], #4
1000224a:	4798      	blx	r3
1000224c:	42ac      	cmp	r4, r5
1000224e:	d3fa      	bcc.n	10002246 <runtime_run_initializers+0xa>
10002250:	bd38      	pop	{r3, r4, r5, pc}
10002252:	bf00      	nop
10002254:	1000d1b0 	.word	0x1000d1b0
10002258:	1000d1f0 	.word	0x1000d1f0

1000225c <runtime_init_early_resets>:
1000225c:	b410      	push	{r4}
1000225e:	4807      	ldr	r0, [pc, #28]	@ (1000227c <runtime_init_early_resets+0x20>)
10002260:	4c07      	ldr	r4, [pc, #28]	@ (10002280 <runtime_init_early_resets+0x24>)
10002262:	4b08      	ldr	r3, [pc, #32]	@ (10002284 <runtime_init_early_resets+0x28>)
10002264:	4a08      	ldr	r2, [pc, #32]	@ (10002288 <runtime_init_early_resets+0x2c>)
10002266:	4909      	ldr	r1, [pc, #36]	@ (1000228c <runtime_init_early_resets+0x30>)
10002268:	6004      	str	r4, [r0, #0]
1000226a:	601a      	str	r2, [r3, #0]
1000226c:	688b      	ldr	r3, [r1, #8]
1000226e:	ea32 0303 	bics.w	r3, r2, r3
10002272:	d1fb      	bne.n	1000226c <runtime_init_early_resets+0x10>
10002274:	f85d 4b04 	ldr.w	r4, [sp], #4
10002278:	4770      	bx	lr
1000227a:	bf00      	nop
1000227c:	40022000 	.word	0x40022000
10002280:	efef3b7f 	.word	0xefef3b7f
10002284:	40023000 	.word	0x40023000
10002288:	03f3fff6 	.word	0x03f3fff6
1000228c:	40020000 	.word	0x40020000

10002290 <runtime_init_usb_power_down>:
10002290:	4b04      	ldr	r3, [pc, #16]	@ (100022a4 <runtime_init_usb_power_down+0x14>)
10002292:	6cdb      	ldr	r3, [r3, #76]	@ 0x4c
10002294:	f5b3 4f00 	cmp.w	r3, #32768	@ 0x8000
10002298:	d103      	bne.n	100022a2 <runtime_init_usb_power_down+0x12>
1000229a:	f44f 2280 	mov.w	r2, #262144	@ 0x40000
1000229e:	4b02      	ldr	r3, [pc, #8]	@ (100022a8 <runtime_init_usb_power_down+0x18>)
100022a0:	64da      	str	r2, [r3, #76]	@ 0x4c
100022a2:	4770      	bx	lr
100022a4:	50110000 	.word	0x50110000
100022a8:	50112000 	.word	0x50112000

100022ac <runtime_init_per_core_enable_coprocessors>:
100022ac:	f04f 22e0 	mov.w	r2, #3758153728	@ 0xe000e000
100022b0:	4b04      	ldr	r3, [pc, #16]	@ (100022c4 <runtime_init_per_core_enable_coprocessors+0x18>)
100022b2:	f8d2 1d88 	ldr.w	r1, [r2, #3464]	@ 0xd88
100022b6:	430b      	orrs	r3, r1
100022b8:	f8c2 3d88 	str.w	r3, [r2, #3464]	@ 0xd88
100022bc:	ee10 0430 	dcp_rcmp r0
100022c0:	4770      	bx	lr
100022c2:	bf00      	nop
100022c4:	00300303 	.word	0x00300303

100022c8 <runtime_init_post_clock_resets>:
100022c8:	f06f 4160 	mvn.w	r1, #3758096384	@ 0xe0000000
100022cc:	4b04      	ldr	r3, [pc, #16]	@ (100022e0 <runtime_init_post_clock_resets+0x18>)
100022ce:	4a05      	ldr	r2, [pc, #20]	@ (100022e4 <runtime_init_post_clock_resets+0x1c>)
100022d0:	6019      	str	r1, [r3, #0]
100022d2:	6893      	ldr	r3, [r2, #8]
100022d4:	43db      	mvns	r3, r3
100022d6:	f033 4360 	bics.w	r3, r3, #3758096384	@ 0xe0000000
100022da:	d1fa      	bne.n	100022d2 <runtime_init_post_clock_resets+0xa>
100022dc:	4770      	bx	lr
100022de:	bf00      	nop
100022e0:	40023000 	.word	0x40023000
100022e4:	40020000 	.word	0x40020000

100022e8 <runtime_init_bootrom_reset>:
100022e8:	b510      	push	{r4, lr}
100022ea:	f245 2053 	movw	r0, #21075	@ 0x5253
100022ee:	f000 f88f 	bl	10002410 <rom_func_lookup>
100022f2:	e8bd 4010 	ldmia.w	sp!, {r4, lr}
100022f6:	4603      	mov	r3, r0
100022f8:	2004      	movs	r0, #4
100022fa:	4718      	bx	r3

100022fc <runtime_init_per_core_bootrom_reset>:
100022fc:	b510      	push	{r4, lr}
100022fe:	f245 2053 	movw	r0, #21075	@ 0x5253
10002302:	f000 f885 	bl	10002410 <rom_func_lookup>
10002306:	e8bd 4010 	ldmia.w	sp!, {r4, lr}
1000230a:	4603      	mov	r3, r0
1000230c:	2001      	movs	r0, #1
1000230e:	4718      	bx	r3

10002310 <runtime_init_spin_locks_reset>:
10002310:	f7fe bdde 	b.w	10000ed0 <spin_locks_reset>

10002314 <runtime_init_install_ram_vector_table>:
10002314:	b510      	push	{r4, lr}
10002316:	4b05      	ldr	r3, [pc, #20]	@ (1000232c <runtime_init_install_ram_vector_table+0x18>)
10002318:	4c05      	ldr	r4, [pc, #20]	@ (10002330 <runtime_init_install_ram_vector_table+0x1c>)
1000231a:	f44f 7288 	mov.w	r2, #272	@ 0x110
1000231e:	4618      	mov	r0, r3
10002320:	68a1      	ldr	r1, [r4, #8]
10002322:	f005 fbe9 	bl	10007af8 <memcpy>
10002326:	60a0      	str	r0, [r4, #8]
10002328:	bd10      	pop	{r4, pc}
1000232a:	bf00      	nop
1000232c:	20000000 	.word	0x20000000
10002330:	e000ed00 	.word	0xe000ed00

10002334 <runtime_init_clocks>:
10002334:	2300      	movs	r3, #0
10002336:	b570      	push	{r4, r5, r6, lr}
10002338:	4c2b      	ldr	r4, [pc, #172]	@ (100023e8 <runtime_init_clocks+0xb4>)
1000233a:	b082      	sub	sp, #8
1000233c:	f8c4 3084 	str.w	r3, [r4, #132]	@ 0x84
10002340:	f7ff ff5e 	bl	10002200 <xosc_init>
10002344:	2201      	movs	r2, #1
10002346:	4b29      	ldr	r3, [pc, #164]	@ (100023ec <runtime_init_clocks+0xb8>)
10002348:	63da      	str	r2, [r3, #60]	@ 0x3c
1000234a:	6c63      	ldr	r3, [r4, #68]	@ 0x44
1000234c:	2b01      	cmp	r3, #1
1000234e:	d1fc      	bne.n	1000234a <runtime_init_clocks+0x16>
10002350:	2103      	movs	r1, #3
10002352:	4a26      	ldr	r2, [pc, #152]	@ (100023ec <runtime_init_clocks+0xb8>)
10002354:	4b24      	ldr	r3, [pc, #144]	@ (100023e8 <runtime_init_clocks+0xb4>)
10002356:	6311      	str	r1, [r2, #48]	@ 0x30
10002358:	6b9c      	ldr	r4, [r3, #56]	@ 0x38
1000235a:	2c01      	cmp	r4, #1
1000235c:	d1fc      	bne.n	10002358 <runtime_init_clocks+0x24>
1000235e:	2602      	movs	r6, #2
10002360:	2505      	movs	r5, #5
10002362:	4621      	mov	r1, r4
10002364:	2305      	movs	r3, #5
10002366:	4a22      	ldr	r2, [pc, #136]	@ (100023f0 <runtime_init_clocks+0xbc>)
10002368:	4822      	ldr	r0, [pc, #136]	@ (100023f4 <runtime_init_clocks+0xc0>)
1000236a:	9600      	str	r6, [sp, #0]
1000236c:	f7ff feaa 	bl	100020c4 <pll_init>
10002370:	4621      	mov	r1, r4
10002372:	462b      	mov	r3, r5
10002374:	4a20      	ldr	r2, [pc, #128]	@ (100023f8 <runtime_init_clocks+0xc4>)
10002376:	4821      	ldr	r0, [pc, #132]	@ (100023fc <runtime_init_clocks+0xc8>)
10002378:	9500      	str	r5, [sp, #0]
1000237a:	f7ff fea3 	bl	100020c4 <pll_init>
1000237e:	2200      	movs	r2, #0
10002380:	2004      	movs	r0, #4
10002382:	4631      	mov	r1, r6
10002384:	4b1e      	ldr	r3, [pc, #120]	@ (10002400 <runtime_init_clocks+0xcc>)
10002386:	f7ff fc9f 	bl	10001cc8 <clock_configure_undivided>
1000238a:	4621      	mov	r1, r4
1000238c:	4628      	mov	r0, r5
1000238e:	2200      	movs	r2, #0
10002390:	4b1c      	ldr	r3, [pc, #112]	@ (10002404 <runtime_init_clocks+0xd0>)
10002392:	f7ff fc99 	bl	10001cc8 <clock_configure_undivided>
10002396:	2200      	movs	r2, #0
10002398:	2008      	movs	r0, #8
1000239a:	4611      	mov	r1, r2
1000239c:	4b1a      	ldr	r3, [pc, #104]	@ (10002408 <runtime_init_clocks+0xd4>)
1000239e:	f7ff fc93 	bl	10001cc8 <clock_configure_undivided>
100023a2:	2200      	movs	r2, #0
100023a4:	2009      	movs	r0, #9
100023a6:	4611      	mov	r1, r2
100023a8:	4b17      	ldr	r3, [pc, #92]	@ (10002408 <runtime_init_clocks+0xd4>)
100023aa:	f7ff fc8d 	bl	10001cc8 <clock_configure_undivided>
100023ae:	2200      	movs	r2, #0
100023b0:	2006      	movs	r0, #6
100023b2:	4611      	mov	r1, r2
100023b4:	4b13      	ldr	r3, [pc, #76]	@ (10002404 <runtime_init_clocks+0xd0>)
100023b6:	f7ff fc87 	bl	10001cc8 <clock_configure_undivided>
100023ba:	2200      	movs	r2, #0
100023bc:	4b11      	ldr	r3, [pc, #68]	@ (10002404 <runtime_init_clocks+0xd0>)
100023be:	2007      	movs	r0, #7
100023c0:	4611      	mov	r1, r2
100023c2:	f7ff fc81 	bl	10001cc8 <clock_configure_undivided>
100023c6:	2004      	movs	r0, #4
100023c8:	f7ff fce6 	bl	10001d98 <clock_get_hz>
100023cc:	2400      	movs	r4, #0
100023ce:	4b0f      	ldr	r3, [pc, #60]	@ (1000240c <runtime_init_clocks+0xd8>)
100023d0:	fba3 3500 	umull	r3, r5, r3, r0
100023d4:	0cad      	lsrs	r5, r5, #18
100023d6:	b2e0      	uxtb	r0, r4
100023d8:	4629      	mov	r1, r5
100023da:	3401      	adds	r4, #1
100023dc:	f7ff ff04 	bl	100021e8 <tick_start>
100023e0:	2c06      	cmp	r4, #6
100023e2:	d1f8      	bne.n	100023d6 <runtime_init_clocks+0xa2>
100023e4:	b002      	add	sp, #8
100023e6:	bd70      	pop	{r4, r5, r6, pc}
100023e8:	40010000 	.word	0x40010000
100023ec:	40013000 	.word	0x40013000
100023f0:	59682f00 	.word	0x59682f00
100023f4:	40050000 	.word	0x40050000
100023f8:	47868c00 	.word	0x47868c00
100023fc:	40058000 	.word	0x40058000
10002400:	00b71b00 	.word	0x00b71b00
10002404:	08f0d180 	.word	0x08f0d180
10002408:	02dc6c00 	.word	0x02dc6c00
1000240c:	431bde83 	.word	0x431bde83

10002410 <rom_func_lookup>:
10002410:	2300      	movs	r3, #0
10002412:	7cdb      	ldrb	r3, [r3, #19]
10002414:	2b02      	cmp	r3, #2
10002416:	bf14      	ite	ne
10002418:	2318      	movne	r3, #24
1000241a:	2316      	moveq	r3, #22
1000241c:	881b      	ldrh	r3, [r3, #0]
1000241e:	2200      	movs	r2, #0
10002420:	e842 f200 	tt	r2, r2
10002424:	0252      	lsls	r2, r2, #9
10002426:	d401      	bmi.n	1000242c <rom_func_lookup+0x1c>
10002428:	2110      	movs	r1, #16
1000242a:	4718      	bx	r3
1000242c:	2104      	movs	r1, #4
1000242e:	4718      	bx	r3

10002430 <rom_reset_usb_boot>:
10002430:	4604      	mov	r4, r0
10002432:	460d      	mov	r5, r1
10002434:	b508      	push	{r3, lr}
10002436:	b128      	cbz	r0, 10002444 <rom_reset_usb_boot+0x14>
10002438:	fa90 f4a0 	rbit	r4, r0
1000243c:	fab4 f484 	clz	r4, r4
10002440:	f041 0520 	orr.w	r5, r1, #32
10002444:	2300      	movs	r3, #0
10002446:	7cdb      	ldrb	r3, [r3, #19]
10002448:	2b02      	cmp	r3, #2
1000244a:	bf14      	ite	ne
1000244c:	2318      	movne	r3, #24
1000244e:	2316      	moveq	r3, #22
10002450:	881b      	ldrh	r3, [r3, #0]
10002452:	2200      	movs	r2, #0
10002454:	e842 f200 	tt	r2, r2
10002458:	0252      	lsls	r2, r2, #9
1000245a:	bf54      	ite	pl
1000245c:	2110      	movpl	r1, #16
1000245e:	2104      	movmi	r1, #4
10002460:	f244 2052 	movw	r0, #16978	@ 0x4252
10002464:	4798      	blx	r3
10002466:	4623      	mov	r3, r4
10002468:	4606      	mov	r6, r0
1000246a:	462a      	mov	r2, r5
1000246c:	210a      	movs	r1, #10
1000246e:	f44f 7081 	mov.w	r0, #258	@ 0x102
10002472:	47b0      	blx	r6

10002474 <runtime_init_bootrom_locking_enable>:
10002474:	4a03      	ldr	r2, [pc, #12]	@ (10002484 <runtime_init_bootrom_locking_enable+0x10>)
10002476:	f8d2 3828 	ldr.w	r3, [r2, #2088]	@ 0x828
1000247a:	2b00      	cmp	r3, #0
1000247c:	d0fb      	beq.n	10002476 <runtime_init_bootrom_locking_enable+0x2>
1000247e:	f3bf 8f5f 	dmb	sy
10002482:	4770      	bx	lr
10002484:	400e0000 	.word	0x400e0000

10002488 <runtime_init_boot_locks_reset>:
10002488:	2100      	movs	r1, #0
1000248a:	4b04      	ldr	r3, [pc, #16]	@ (1000249c <runtime_init_boot_locks_reset+0x14>)
1000248c:	4a04      	ldr	r2, [pc, #16]	@ (100024a0 <runtime_init_boot_locks_reset+0x18>)
1000248e:	f3bf 8f5f 	dmb	sy
10002492:	f843 1b04 	str.w	r1, [r3], #4
10002496:	4293      	cmp	r3, r2
10002498:	d1f9      	bne.n	1000248e <runtime_init_boot_locks_reset+0x6>
1000249a:	4770      	bx	lr
1000249c:	400e080c 	.word	0x400e080c
100024a0:	400e082c 	.word	0x400e082c

100024a4 <generic_save_state>:
100024a4:	b086      	sub	sp, #24
100024a6:	b403      	push	{r0, r1}
100024a8:	fc51 0408 	dcp_pxmd r0, r1
100024ac:	e9cd 0102 	strd	r0, r1, [sp, #8]
100024b0:	fc51 0409 	dcp_pymd r0, r1
100024b4:	e9cd 0104 	strd	r0, r1, [sp, #16]
100024b8:	ec51 040a 	dcp_refd r0, r1
100024bc:	e9cd 0106 	strd	r0, r1, [sp, #24]
100024c0:	bc03      	pop	{r0, r1}
100024c2:	47f0      	blx	lr

100024c4 <generic_restore_state>:
100024c4:	e8bd 5000 	ldmia.w	sp!, {ip, lr}
100024c8:	ec4e c400 	dcp_wxmd ip, lr
100024cc:	e8bd 5000 	ldmia.w	sp!, {ip, lr}
100024d0:	ec4e c401 	dcp_wymd ip, lr
100024d4:	e8bd 5000 	ldmia.w	sp!, {ip, lr}
100024d8:	ec4e c402 	dcp_wefd ip, lr
100024dc:	bd00      	pop	{pc}
100024de:	0000      	movs	r0, r0
100024e0:	b500      	push	{lr}
100024e2:	f7ff ffdf 	bl	100024a4 <generic_save_state>
100024e6:	e002      	b.n	100024ee <__wrap___aeabi_dadd+0x6>

100024e8 <__wrap___aeabi_dadd>:
100024e8:	fe10 f430 	dcp_pcmp APSR_nzcv
100024ec:	d4f8      	bmi.n	100024e0 <generic_restore_state+0x1c>
100024ee:	ec41 0410 	dcp_wxup r0, r1
100024f2:	ec43 2411 	dcp_wyup r2, r3
100024f6:	ee00 0401 	dcp_add0
100024fa:	ee10 0401 	dcp_add1
100024fe:	ee80 0420 	dcp_nrdd
10002502:	ec51 0410 	dcp_rdda r0, r1
10002506:	4770      	bx	lr
10002508:	b500      	push	{lr}
1000250a:	f7ff ffcb 	bl	100024a4 <generic_save_state>
1000250e:	e002      	b.n	10002516 <__wrap___aeabi_dsub+0x6>

10002510 <__wrap___aeabi_dsub>:
10002510:	fe10 f430 	dcp_pcmp APSR_nzcv
10002514:	d4f8      	bmi.n	10002508 <__wrap___aeabi_dadd+0x20>
10002516:	ec41 0410 	dcp_wxup r0, r1
1000251a:	ec43 2411 	dcp_wyup r2, r3
1000251e:	ee00 0401 	dcp_add0
10002522:	ee10 0421 	dcp_sub1
10002526:	ee80 0420 	dcp_nrdd
1000252a:	ec51 0430 	dcp_rdds r0, r1
1000252e:	4770      	bx	lr
10002530:	b500      	push	{lr}
10002532:	f7ff ffb7 	bl	100024a4 <generic_save_state>
10002536:	e002      	b.n	1000253e <__wrap___aeabi_dmul+0x6>

10002538 <__wrap___aeabi_dmul>:
10002538:	fe10 f430 	dcp_pcmp APSR_nzcv
1000253c:	d4f8      	bmi.n	10002530 <__wrap___aeabi_dsub+0x20>
1000253e:	b510      	push	{r4, lr}
10002540:	ec41 0410 	dcp_wxup r0, r1
10002544:	ec43 2411 	dcp_wyup r2, r3
10002548:	ec51 0404 	dcp_rxms r0, r1, #0x0
1000254c:	ec53 2405 	dcp_ryms r2, r3, #0x0
10002550:	fba0 4c02 	umull	r4, ip, r0, r2
10002554:	f05f 0e00 	movs.w	lr, #0
10002558:	fbe0 ce03 	umlal	ip, lr, r0, r3
1000255c:	fbe1 ce02 	umlal	ip, lr, r1, r2
10002560:	ec4c 4420 	dcp_wxms r4, ip
10002564:	2400      	movs	r4, #0
10002566:	fbe1 e403 	umlal	lr, r4, r1, r3
1000256a:	ec44 e430 	dcp_wxmo lr, r4
1000256e:	ee80 0420 	dcp_nrdd
10002572:	ec51 0450 	dcp_rddm r0, r1
10002576:	e8bd 4010 	ldmia.w	sp!, {r4, lr}
1000257a:	4770      	bx	lr
1000257c:	b500      	push	{lr}
1000257e:	f7ff ff91 	bl	100024a4 <generic_save_state>
10002582:	e002      	b.n	1000258a <__wrap___aeabi_ddiv+0x6>

10002584 <__wrap___aeabi_ddiv>:
10002584:	fe10 f430 	dcp_pcmp APSR_nzcv
10002588:	d4f8      	bmi.n	1000257c <__wrap___aeabi_dmul+0x44>
1000258a:	ec41 0410 	dcp_wxup r0, r1
1000258e:	ec43 2411 	dcp_wyup r2, r3
10002592:	ec51 0421 	dcp_rymr r0, r1
10002596:	fba0 1201 	umull	r1, r2, r0, r1
1000259a:	ea6f 0282 	mvn.w	r2, r2, lsl #2
1000259e:	fb52 0010 	smmlar	r0, r2, r0, r0
100025a2:	fb52 f212 	smmulr	r2, r2, r2
100025a6:	fb52 0010 	smmlar	r0, r2, r0, r0
100025aa:	eba0 7cd0 	sub.w	ip, r0, r0, lsr #31
100025ae:	ec53 2404 	dcp_rxms r2, r3, #0x0
100025b2:	fb5c f113 	smmulr	r1, ip, r3
100025b6:	ec53 2415 	dcp_ryms r2, r3, #0x1
100025ba:	fba1 2002 	umull	r2, r0, r1, r2
100025be:	fb01 0003 	mla	r0, r1, r3, r0
100025c2:	ec53 2444 	dcp_rxms r2, r3, #0x4
100025c6:	eba2 0000 	sub.w	r0, r2, r0
100025ca:	fb50 f21c 	smmulr	r2, r0, ip
100025ce:	ea4f 1311 	mov.w	r3, r1, lsr #4
100025d2:	eb12 7001 	adds.w	r0, r2, r1, lsl #28
100025d6:	eb43 71e2 	adc.w	r1, r3, r2, asr #31
100025da:	ea40 5051 	orr.w	r0, r0, r1, lsr #21
100025de:	ea20 5091 	bic.w	r0, r0, r1, lsr #22
100025e2:	f020 0007 	bic.w	r0, r0, #7
100025e6:	ec53 2475 	dcp_ryms r2, r3, #0x7
100025ea:	fba0 3c02 	umull	r3, ip, r0, r2
100025ee:	ec53 2475 	dcp_ryms r2, r3, #0x7
100025f2:	fb00 cc03 	mla	ip, r0, r3, ip
100025f6:	fb01 cc02 	mla	ip, r1, r2, ip
100025fa:	ec53 2404 	dcp_rxms r2, r3, #0x0
100025fe:	ebac 4c82 	sub.w	ip, ip, r2, lsl #18
10002602:	ea40 705c 	orr.w	r0, r0, ip, lsr #29
10002606:	f1a0 0001 	sub.w	r0, r0, #1
1000260a:	ec41 0440 	dcp_wxdd r0, r1
1000260e:	ee80 0420 	dcp_nrdd
10002612:	ec51 0470 	dcp_rddd r0, r1
10002616:	4770      	bx	lr
10002618:	b500      	push	{lr}
1000261a:	f7ff ff43 	bl	100024a4 <generic_save_state>
1000261e:	e002      	b.n	10002626 <__wrap___aeabi_d2f+0x6>

10002620 <__wrap___aeabi_d2f>:
10002620:	fe10 f430 	dcp_pcmp APSR_nzcv
10002624:	d4f8      	bmi.n	10002618 <__wrap___aeabi_ddiv+0x94>
10002626:	ec41 0410 	dcp_wxup r0, r1
1000262a:	ee80 0422 	dcp_nrdf
1000262e:	ee10 04b2 	dcp_rdfg r0
10002632:	4770      	bx	lr
10002634:	b500      	push	{lr}
10002636:	f7ff ff35 	bl	100024a4 <generic_save_state>
1000263a:	e002      	b.n	10002642 <__wrap___aeabi_i2d+0x6>

1000263c <__wrap___aeabi_i2d>:
1000263c:	fe10 f430 	dcp_pcmp APSR_nzcv
10002640:	d4f8      	bmi.n	10002634 <__wrap___aeabi_d2f+0x14>
10002642:	ec40 0470 	dcp_wxic r0, r0
10002646:	ee00 0401 	dcp_add0
1000264a:	ee10 0421 	dcp_sub1
1000264e:	ee80 0420 	dcp_nrdd
10002652:	ec51 0430 	dcp_rdds r0, r1
10002656:	4770      	bx	lr
10002658:	b500      	push	{lr}
1000265a:	f7ff ff23 	bl	100024a4 <generic_save_state>
1000265e:	e002      	b.n	10002666 <__wrap___aeabi_ui2d+0x6>

10002660 <__wrap___aeabi_ui2d>:
10002660:	fe10 f430 	dcp_pcmp APSR_nzcv
10002664:	d4f8      	bmi.n	10002658 <__wrap___aeabi_i2d+0x1c>
10002666:	ec40 0460 	dcp_wxuc r0, r0
1000266a:	ee00 0401 	dcp_add0
1000266e:	ee10 0421 	dcp_sub1
10002672:	ee80 0420 	dcp_nrdd
10002676:	ec51 0430 	dcp_rdds r0, r1
1000267a:	4770      	bx	lr
1000267c:	b500      	push	{lr}
1000267e:	f7ff ff11 	bl	100024a4 <generic_save_state>
10002682:	e002      	b.n	1000268a <__wrap___aeabi_d2iz+0x6>

10002684 <__wrap___aeabi_d2iz>:
10002684:	fe10 f430 	dcp_pcmp APSR_nzcv
10002688:	d4f8      	bmi.n	1000267c <__wrap___aeabi_ui2d+0x1c>
1000268a:	ec41 0480 	dcp_wxdc r0, r1
1000268e:	ee00 0401 	dcp_add0
10002692:	ee10 0401 	dcp_add1
10002696:	ee80 0440 	dcp_ntdc
1000269a:	ee10 0413 	dcp_rdic r0
1000269e:	4770      	bx	lr
100026a0:	b500      	push	{lr}
100026a2:	f7ff feff 	bl	100024a4 <generic_save_state>
100026a6:	e002      	b.n	100026ae <__wrap___aeabi_d2uiz+0x6>

100026a8 <__wrap___aeabi_d2uiz>:
100026a8:	fe10 f430 	dcp_pcmp APSR_nzcv
100026ac:	d4f8      	bmi.n	100026a0 <__wrap___aeabi_d2iz+0x1c>
100026ae:	ec41 0480 	dcp_wxdc r0, r1
100026b2:	ee00 0401 	dcp_add0
100026b6:	ee10 0401 	dcp_add1
100026ba:	ee80 0440 	dcp_ntdc
100026be:	ee10 0433 	dcp_rduc r0
100026c2:	4770      	bx	lr
100026c4:	b500      	push	{lr}
100026c6:	f7ff feed 	bl	100024a4 <generic_save_state>
100026ca:	e002      	b.n	100026d2 <__wrap___aeabi_dcmpun+0x6>

100026cc <__wrap___aeabi_dcmpun>:
100026cc:	fe10 f430 	dcp_pcmp APSR_nzcv
100026d0:	d4f8      	bmi.n	100026c4 <__wrap___aeabi_d2uiz+0x1c>
100026d2:	ec41 0410 	dcp_wxup r0, r1
100026d6:	ec43 2411 	dcp_wyup r2, r3
100026da:	ee00 0401 	dcp_add0
100026de:	ee10 0430 	dcp_rcmp r0
100026e2:	f3c0 7000 	ubfx	r0, r0, #28, #1
100026e6:	4770      	bx	lr
100026e8:	b500      	push	{lr}
100026ea:	f7ff fedb 	bl	100024a4 <generic_save_state>
100026ee:	e002      	b.n	100026f6 <__wrap___aeabi_dcmpeq+0x6>

100026f0 <__wrap___aeabi_dcmpeq>:
100026f0:	fe10 f430 	dcp_pcmp APSR_nzcv
100026f4:	d4f8      	bmi.n	100026e8 <__wrap___aeabi_dcmpun+0x1c>
100026f6:	ec41 0410 	dcp_wxup r0, r1
100026fa:	ec43 2411 	dcp_wyup r2, r3
100026fe:	ee00 0401 	dcp_add0
10002702:	ee10 0430 	dcp_rcmp r0
10002706:	f3c0 7080 	ubfx	r0, r0, #30, #1
1000270a:	4770      	bx	lr
1000270c:	b500      	push	{lr}
1000270e:	f7ff fec9 	bl	100024a4 <generic_save_state>
10002712:	e002      	b.n	1000271a <__wrap___aeabi_dcmplt+0x6>

10002714 <__wrap___aeabi_dcmplt>:
10002714:	fe10 f430 	dcp_pcmp APSR_nzcv
10002718:	d4f8      	bmi.n	1000270c <__wrap___aeabi_dcmpeq+0x1c>
1000271a:	ec43 2410 	dcp_wxup r2, r3
1000271e:	ec41 0411 	dcp_wyup r0, r1
10002722:	ee00 0401 	dcp_add0
10002726:	ee10 f430 	dcp_rcmp APSR_nzcv
1000272a:	bf8c      	ite	hi
1000272c:	2001      	movhi	r0, #1
1000272e:	2000      	movls	r0, #0
10002730:	4770      	bx	lr
10002732:	bf00      	nop
10002734:	b500      	push	{lr}
10002736:	f7ff feb5 	bl	100024a4 <generic_save_state>
1000273a:	e002      	b.n	10002742 <__wrap___aeabi_dcmple+0x6>

1000273c <__wrap___aeabi_dcmple>:
1000273c:	fe10 f430 	dcp_pcmp APSR_nzcv
10002740:	d4f8      	bmi.n	10002734 <__wrap___aeabi_dcmplt+0x20>
10002742:	ec43 2410 	dcp_wxup r2, r3
10002746:	ec41 0411 	dcp_wyup r0, r1
1000274a:	ee00 0401 	dcp_add0
1000274e:	ee10 f430 	dcp_rcmp APSR_nzcv
10002752:	bf2c      	ite	cs
10002754:	2001      	movcs	r0, #1
10002756:	2000      	movcc	r0, #0
10002758:	4770      	bx	lr
1000275a:	bf00      	nop
1000275c:	b500      	push	{lr}
1000275e:	f7ff fea1 	bl	100024a4 <generic_save_state>
10002762:	e002      	b.n	1000276a <__wrap___aeabi_dcmpge+0x6>

10002764 <__wrap___aeabi_dcmpge>:
10002764:	fe10 f430 	dcp_pcmp APSR_nzcv
10002768:	d4f8      	bmi.n	1000275c <__wrap___aeabi_dcmple+0x20>
1000276a:	ec41 0410 	dcp_wxup r0, r1
1000276e:	ec43 2411 	dcp_wyup r2, r3
10002772:	ee00 0401 	dcp_add0
10002776:	ee10 f430 	dcp_rcmp APSR_nzcv
1000277a:	bf2c      	ite	cs
1000277c:	2001      	movcs	r0, #1
1000277e:	2000      	movcc	r0, #0
10002780:	4770      	bx	lr
10002782:	bf00      	nop
10002784:	b500      	push	{lr}
10002786:	f7ff fe8d 	bl	100024a4 <generic_save_state>
1000278a:	e002      	b.n	10002792 <__wrap___aeabi_dcmpgt+0x6>

1000278c <__wrap___aeabi_dcmpgt>:
1000278c:	fe10 f430 	dcp_pcmp APSR_nzcv
10002790:	d4f8      	bmi.n	10002784 <__wrap___aeabi_dcmpge+0x20>
10002792:	ec41 0410 	dcp_wxup r0, r1
10002796:	ec43 2411 	dcp_wyup r2, r3
1000279a:	ee00 0401 	dcp_add0
